                                      1 ;--------------------------------------------------------
                                      2 ; File Created by SDCC : free open source ANSI-C Compiler
                                      3 ; Version 4.2.0 #13081 (MINGW64)
                                      4 ;--------------------------------------------------------
                                      5 	.module mandoroids
                                      6 	.optsdcc -mz80
                                      7 	
                                      8 ;--------------------------------------------------------
                                      9 ; Public variables in this module
                                     10 ;--------------------------------------------------------
                                     11 	.globl _main
                                     12 	.globl _ScrollBackgroundToTheLeft
                                     13 	.globl _chance
                                     14 	.globl _Math_GetRandom8
                                     15 	.globl _Math_SetRandomSeed8
                                     16 	.globl _Print_SetColor
                                     17 	.globl _Print_DrawInt
                                     18 	.globl _Print_DrawText
                                     19 	.globl _Print_SetTextFont
                                     20 	.globl _VDP_SetSpritePattern
                                     21 	.globl _VDP_SetSpritePositionY
                                     22 	.globl _VDP_SetSpritePosition
                                     23 	.globl _VDP_SetSpriteSM1
                                     24 	.globl _VDP_LoadSpritePattern
                                     25 	.globl _VDP_Peek_16K
                                     26 	.globl _VDP_ReadVRAM_16K
                                     27 	.globl _VDP_FillVRAM_16K
                                     28 	.globl _VDP_WriteVRAM_16K
                                     29 	.globl _VDP_RegWriteBakMask
                                     30 	.globl _VDP_RegWrite
                                     31 	.globl _VDP_SetMode
                                     32 	.globl _VDP_ClearVRAM
                                     33 	.globl _Bios_Exit
                                     34 	.globl _Keyboard_IsKeyPressed
                                     35 	.globl _Joystick_Update
                                     36 	.globl _shot_active
                                     37 	.globl _shot_pos_tile
                                     38 	.globl _shot_pos
                                     39 	.globl _can_reset
                                     40 	.globl _button_down
                                     41 	.globl _asteroid_destroyed
                                     42 	.globl _joystick_used
                                     43 	.globl _asteroids_shot
                                     44 	.globl _speed_up_timer
                                     45 	.globl _difficulty_timer
                                     46 	.globl _can_shoot_timer
                                     47 	.globl _can_shoot
                                     48 	.globl _game_ended
                                     49 	.globl _game_started
                                     50 	.globl _asteroid_chance
                                     51 	.globl _scroll_rate
                                     52 	.globl _update_rate
                                     53 	.globl _input_rate
                                     54 	.globl _vy
                                     55 	.globl _asteroid_arrangements
                                     56 	.globl _hundred
                                     57 	.globl _count
                                     58 	.globl _new_column_buffer
                                     59 	.globl _pattern_buffer
                                     60 	.globl _py
                                     61 	.globl _px
                                     62 	.globl _g_SLTSL
                                     63 	.globl _g_GRPACY
                                     64 	.globl _g_GRPACX
                                     65 	.globl _g_LOGOPR
                                     66 	.globl _g_CMASK
                                     67 	.globl _g_CLOC
                                     68 	.globl _g_FNKSTR
                                     69 	.globl _g_ATRBYT
                                     70 	.globl _g_BDRCLR
                                     71 	.globl _g_BAKCLR
                                     72 	.globl _g_FORCLR
                                     73 	.globl _g_CSRX
                                     74 	.globl _g_CSRY
                                     75 	.globl _g_CLIKSW
                                     76 	.globl _g_MLTPAT
                                     77 	.globl _g_MLTATR
                                     78 	.globl _g_MLTCGP
                                     79 	.globl _g_MLTCOL
                                     80 	.globl _g_MLTNAM
                                     81 	.globl _g_GRPPAT
                                     82 	.globl _g_GRPATR
                                     83 	.globl _g_GRPCGP
                                     84 	.globl _g_GRPCOL
                                     85 	.globl _g_GRPNAM
                                     86 	.globl _g_T32PAT
                                     87 	.globl _g_T32ATR
                                     88 	.globl _g_T32CGP
                                     89 	.globl _g_T32COL
                                     90 	.globl _g_T32NAM
                                     91 	.globl _g_TXTPAT
                                     92 	.globl _g_TXTATR
                                     93 	.globl _g_TXTCGP
                                     94 	.globl _g_TXTCOL
                                     95 	.globl _g_TXTNAM
                                     96 	.globl _g_CLMLST
                                     97 	.globl _g_CRTCNT
                                     98 	.globl _g_LINLEN
                                     99 	.globl _g_LINL32
                                    100 	.globl _g_LINL40
                                    101 	.globl _g_Font_MGL_Sample6
                                    102 	.globl _blank
                                    103 	.globl _shot_pattern
                                    104 	.globl _asteroid
                                    105 	.globl _jetpack_f1
                                    106 	.globl _jetpack_f0
                                    107 	.globl _g_BDOS
                                    108 	.globl _g_MASTER
                                    109 	.globl _g_RAMAD3
                                    110 	.globl _g_RAMAD2
                                    111 	.globl _g_RAMAD1
                                    112 	.globl _g_RAMAD0
                                    113 	.globl _g_BREAKV
                                    114 	.globl _g_DISKVE
                                    115 	.globl _g_KANJTABLE
                                    116 	.globl _g_STRSRC
                                    117 	.globl _g_SUBRID
                                    118 	.globl _g_CHAR_16
                                    119 	.globl _g_MSXMID
                                    120 	.globl _g_MSXVER
                                    121 	.globl _g_ROMVersion
                                    122 	.globl _g_BASRVN
                                    123 	.globl _g_VDP_DW
                                    124 	.globl _g_VDP_DR
                                    125 	.globl _g_CGTABL
                                    126 	.globl _g_SVFFFD
                                    127 	.globl _g_RG27SAV
                                    128 	.globl _g_RG26SAV
                                    129 	.globl _g_RG25SAV
                                    130 	.globl _g_SVFFF8
                                    131 	.globl _g_MINROM
                                    132 	.globl _g_RG23SAV
                                    133 	.globl _g_RG22SAV
                                    134 	.globl _g_RG21SAV
                                    135 	.globl _g_RG20SAV
                                    136 	.globl _g_RG19SAV
                                    137 	.globl _g_RG18SAV
                                    138 	.globl _g_RG17SAV
                                    139 	.globl _g_RG16SAV
                                    140 	.globl _g_RG15SAV
                                    141 	.globl _g_RG14SAV
                                    142 	.globl _g_RG13SAV
                                    143 	.globl _g_RG12SAV
                                    144 	.globl _g_RG11SAV
                                    145 	.globl _g_RG10SAV
                                    146 	.globl _g_RG09SAV
                                    147 	.globl _g_RG08SAV
                                    148 	.globl _g_PROCNM
                                    149 	.globl _g_SLTWRK
                                    150 	.globl _g_SLTATR
                                    151 	.globl _g_SLTTBL
                                    152 	.globl _g_EXPTBL
                                    153 	.globl _g_MNROM
                                    154 	.globl _g_DRWANG
                                    155 	.globl _g_DRWSCL
                                    156 	.globl _g_DRWFLG
                                    157 	.globl _g_GYPOS
                                    158 	.globl _g_GXPOS
                                    159 	.globl _g_BRDATR
                                    160 	.globl _g_CASPRV
                                    161 	.globl _g_OLDSCR
                                    162 	.globl _g_SCRMOD
                                    163 	.globl _g_FLBMEM
                                    164 	.globl _g_KANAMD
                                    165 	.globl _g_KANAST
                                    166 	.globl _g_CAPST
                                    167 	.globl _g_CSTYLE
                                    168 	.globl _g_CSRSW
                                    169 	.globl _g_INSFLG
                                    170 	.globl _g_ESCCNT
                                    171 	.globl _g_GRPHED
                                    172 	.globl _g_WINWID
                                    173 	.globl _g_LOWLIM
                                    174 	.globl _g_INTCNT
                                    175 	.globl _g_INTVAL
                                    176 	.globl _g_JIFFY
                                    177 	.globl _g_PADX
                                    178 	.globl _g_PADY
                                    179 	.globl _g_INTFLG
                                    180 	.globl _g_RTYCNT
                                    181 	.globl _g_TRPTBL
                                    182 	.globl _g_HIMEM
                                    183 	.globl _g_BOTTOM
                                    184 	.globl _g_PATWRK
                                    185 	.globl _g_LINWRK
                                    186 	.globl _g_KEYBUF
                                    187 	.globl _g_NEWKEY
                                    188 	.globl _g_OLDKEY
                                    189 	.globl _g_CLIKFL
                                    190 	.globl _g_ONGSBF
                                    191 	.globl _g_FNKFLG
                                    192 	.globl _g_FNKSWI
                                    193 	.globl _g_CODSAV
                                    194 	.globl _g_FSTPOS
                                    195 	.globl _g_LINTTB
                                    196 	.globl _g_BASROM
                                    197 	.globl _g_ENSTOP
                                    198 	.globl _g_VCBC
                                    199 	.globl _g_VCBB
                                    200 	.globl _g_VCBA
                                    201 	.globl _g_PLYCNT
                                    202 	.globl _g_MUSICF
                                    203 	.globl _g_QUEUEN
                                    204 	.globl _g_MCLPTR
                                    205 	.globl _g_MCLLEN
                                    206 	.globl _g_SAVVOL
                                    207 	.globl _g_VOICEN
                                    208 	.globl _g_SAVSP
                                    209 	.globl _g_PRSCNT
                                    210 	.globl _g_LSTMOD
                                    211 	.globl _g_LSTCOM
                                    212 	.globl _g_COMMSK
                                    213 	.globl _g_ESTBLS
                                    214 	.globl _g_FLAGS
                                    215 	.globl _g_ERRORS
                                    216 	.globl _g_DATCNT
                                    217 	.globl _g_DEVNUM
                                    218 	.globl _g_OLDINT
                                    219 	.globl _g_OLDSTT
                                    220 	.globl _g_MEXBIh
                                    221 	.globl _g_RSIQLN
                                    222 	.globl _g_RSFCB
                                    223 	.globl _g_TOCNT
                                    224 	.globl _g_RSTMP
                                    225 	.globl _g_YSAVE
                                    226 	.globl _g_XSAVE
                                    227 	.globl _g_NORUSE
                                    228 	.globl _g_MODE
                                    229 	.globl _g_ROMA
                                    230 	.globl _g_CHRCNT
                                    231 	.globl _g_EXBRSA
                                    232 	.globl _g_AVCSAV
                                    233 	.globl _g_ACPAGE
                                    234 	.globl _g_DPPAGE
                                    235 	.globl _g_RS2IQ
                                    236 	.globl _g_VOICCQ
                                    237 	.globl _g_VOICBQ
                                    238 	.globl _g_VOICAQ
                                    239 	.globl _g_QUEBAK
                                    240 	.globl _g_QUETAB
                                    241 	.globl _g_ASPCT2
                                    242 	.globl _g_ASPCT1
                                    243 	.globl _g_HEADER
                                    244 	.globl _g_HIGH
                                    245 	.globl _g_LOW
                                    246 	.globl _g_CS240
                                    247 	.globl _g_CS120
                                    248 	.globl _g_GETPNT
                                    249 	.globl _g_PUTPNT
                                    250 	.globl _g_REPCNT
                                    251 	.globl _g_SCNCNT
                                    252 	.globl _g_FRCNEW
                                    253 	.globl _g_QUEUES
                                    254 	.globl _g_MINUPD
                                    255 	.globl _g_MAXUPD
                                    256 	.globl _g_TRGFLG
                                    257 	.globl _g_STATFL
                                    258 	.globl _g_RG7SAV
                                    259 	.globl _g_RG6SAV
                                    260 	.globl _g_RG5SAV
                                    261 	.globl _g_RG4SAV
                                    262 	.globl _g_RG3SAV
                                    263 	.globl _g_RG2SAV
                                    264 	.globl _g_RG1SAV
                                    265 	.globl _g_RG0SAV
                                    266 	.globl _g_CNSDFG
                                    267 	.globl _g_USRTAB
                                    268 	.globl _g_CLPRIM
                                    269 	.globl _g_WRPRIM
                                    270 	.globl _g_RDPRIM
                                    271 	.globl _GetRandomColumn
                                    272 	.globl _CreateColumn
                                    273 	.globl _Shoot
                                    274 	.globl _UpdateShots
                                    275 	.globl _UpdateCollision
                                    276 	.globl _ResetGame
                                    277 	.globl _FinalScreen
                                    278 ;--------------------------------------------------------
                                    279 ; special function registers
                                    280 ;--------------------------------------------------------
                           0000A8   281 _g_PortPrimarySlot	=	0x00a8
                           0000A9   282 _g_PortReadKeyboard	=	0x00a9
                           0000AA   283 _g_PortAccessKeyboard	=	0x00aa
                           0000AB   284 _g_PortControl	=	0x00ab
                           000098   285 _g_VDP_DataPort	=	0x0098
                           000099   286 _g_VDP_RegPort	=	0x0099
                           000099   287 _g_VDP_AddrPort	=	0x0099
                           000099   288 _g_VDP_StatPort	=	0x0099
                           0000A0   289 _g_PSG_RegPort	=	0x00a0
                           0000A1   290 _g_PSG_DataPort	=	0x00a1
                           0000A2   291 _g_PSG_StatPort	=	0x00a2
                           000010   292 _g_PSG_Ext_RegPort	=	0x0010
                           000011   293 _g_PSG_Ext_DataPort	=	0x0011
                           000012   294 _g_PSG_Ext_StatPort	=	0x0012
                           00007C   295 _g_MSXMusic_IndexPort	=	0x007c
                           00007D   296 _g_MSXMusic_DataPort	=	0x007d
                           0000C0   297 _g_MSXAudio_IndexPort	=	0x00c0
                           0000C1   298 _g_MSXAudio_DataPort	=	0x00c1
                           0000C2   299 _g_MSXAudio_IndexPort2	=	0x00c2
                           0000C3   300 _g_MSXAudio_DataPort2	=	0x00c3
                           0000B4   301 _g_RTC_AddrPort	=	0x00b4
                           0000B5   302 _g_RTC_DataPort	=	0x00b5
                                    303 ;--------------------------------------------------------
                                    304 ; ram data
                                    305 ;--------------------------------------------------------
                                    306 	.area _DATA
                           00F3AE   307 _g_LINL40	=	0xf3ae
                           00F3AF   308 _g_LINL32	=	0xf3af
                           00F3B0   309 _g_LINLEN	=	0xf3b0
                           00F3B1   310 _g_CRTCNT	=	0xf3b1
                           00F3B2   311 _g_CLMLST	=	0xf3b2
                           00F3B3   312 _g_TXTNAM	=	0xf3b3
                           00F3B5   313 _g_TXTCOL	=	0xf3b5
                           00F3B7   314 _g_TXTCGP	=	0xf3b7
                           00F3B9   315 _g_TXTATR	=	0xf3b9
                           00F3BB   316 _g_TXTPAT	=	0xf3bb
                           00F3BD   317 _g_T32NAM	=	0xf3bd
                           00F3BF   318 _g_T32COL	=	0xf3bf
                           00F3C1   319 _g_T32CGP	=	0xf3c1
                           00F3C3   320 _g_T32ATR	=	0xf3c3
                           00F3C5   321 _g_T32PAT	=	0xf3c5
                           00F3C7   322 _g_GRPNAM	=	0xf3c7
                           00F3C9   323 _g_GRPCOL	=	0xf3c9
                           00F3CB   324 _g_GRPCGP	=	0xf3cb
                           00F3CD   325 _g_GRPATR	=	0xf3cd
                           00F3CF   326 _g_GRPPAT	=	0xf3cf
                           00F3D1   327 _g_MLTNAM	=	0xf3d1
                           00F3D3   328 _g_MLTCOL	=	0xf3d3
                           00F3D5   329 _g_MLTCGP	=	0xf3d5
                           00F3D7   330 _g_MLTATR	=	0xf3d7
                           00F3D9   331 _g_MLTPAT	=	0xf3d9
                           00F3DB   332 _g_CLIKSW	=	0xf3db
                           00F3DC   333 _g_CSRY	=	0xf3dc
                           00F3DD   334 _g_CSRX	=	0xf3dd
                           00F3E9   335 _g_FORCLR	=	0xf3e9
                           00F3EA   336 _g_BAKCLR	=	0xf3ea
                           00F3EB   337 _g_BDRCLR	=	0xf3eb
                           00F3F2   338 _g_ATRBYT	=	0xf3f2
                           00F87F   339 _g_FNKSTR	=	0xf87f
                           00F92A   340 _g_CLOC	=	0xf92a
                           00F92C   341 _g_CMASK	=	0xf92c
                           00FB02   342 _g_LOGOPR	=	0xfb02
                           00FCB7   343 _g_GRPACX	=	0xfcb7
                           00FCB9   344 _g_GRPACY	=	0xfcb9
                           00FFFF   345 _g_SLTSL	=	0xffff
      000000                        346 _px::
      000000                        347 	.ds 1
      000001                        348 _py::
      000001                        349 	.ds 1
      000002                        350 _pattern_buffer::
      000002                        351 	.ds 744
      0002EA                        352 _new_column_buffer::
      0002EA                        353 	.ds 3
                                    354 ;--------------------------------------------------------
                                    355 ; ram data
                                    356 ;--------------------------------------------------------
                                    357 	.area _INITIALIZED
      000000                        358 _count::
      000000                        359 	.ds 1
      000001                        360 _hundred::
      000001                        361 	.ds 1
      000002                        362 _asteroid_arrangements::
      000002                        363 	.ds 8
      00000A                        364 _vy::
      00000A                        365 	.ds 1
      00000B                        366 _input_rate::
      00000B                        367 	.ds 1
      00000C                        368 _update_rate::
      00000C                        369 	.ds 1
      00000D                        370 _scroll_rate::
      00000D                        371 	.ds 1
      00000E                        372 _asteroid_chance::
      00000E                        373 	.ds 1
      00000F                        374 _game_started::
      00000F                        375 	.ds 1
      000010                        376 _game_ended::
      000010                        377 	.ds 1
      000011                        378 _can_shoot::
      000011                        379 	.ds 1
      000012                        380 _can_shoot_timer::
      000012                        381 	.ds 2
      000014                        382 _difficulty_timer::
      000014                        383 	.ds 2
      000016                        384 _speed_up_timer::
      000016                        385 	.ds 2
      000018                        386 _asteroids_shot::
      000018                        387 	.ds 2
      00001A                        388 _joystick_used::
      00001A                        389 	.ds 1
      00001B                        390 _asteroid_destroyed::
      00001B                        391 	.ds 1
      00001C                        392 _button_down::
      00001C                        393 	.ds 1
      00001D                        394 _can_reset::
      00001D                        395 	.ds 1
      00001E                        396 _shot_pos::
      00001E                        397 	.ds 2
      000020                        398 _shot_pos_tile::
      000020                        399 	.ds 2
      000022                        400 _shot_active::
      000022                        401 	.ds 1
                                    402 ;--------------------------------------------------------
                                    403 ; absolute external ram data
                                    404 ;--------------------------------------------------------
                                    405 	.area _DABS (ABS)
                                    406 ;--------------------------------------------------------
                                    407 ; global & static initialisations
                                    408 ;--------------------------------------------------------
                                    409 	.area _HOME
                                    410 	.area _GSINIT
                                    411 	.area _GSFINAL
                                    412 	.area _GSINIT
                                    413 ;--------------------------------------------------------
                                    414 ; Home
                                    415 ;--------------------------------------------------------
                                    416 	.area _HOME
                                    417 	.area _HOME
                                    418 ;--------------------------------------------------------
                                    419 ; code
                                    420 ;--------------------------------------------------------
                                    421 	.area _CODE
                                    422 ;./random.c:1: unsigned char chance(unsigned char prcntg) {
                                    423 ;	---------------------------------
                                    424 ; Function chance
                                    425 ; ---------------------------------
      000000                        426 _chance::
                                    427 ;./random.c:2: char rs = hundred <= prcntg;
      000000 FD 21r01r00      [14]  428 	ld	iy, #_hundred
      000004 FD 96 00         [19]  429 	sub	a, 0 (iy)
      000007 3E 00            [ 7]  430 	ld	a, #0x00
      000009 17               [ 4]  431 	rla
      00000A EE 01            [ 7]  432 	xor	a, #0x01
      00000C 4F               [ 4]  433 	ld	c, a
                                    434 ;./random.c:3: hundred += 255; 
      00000D 3Ar01r00         [13]  435 	ld	a, (_hundred+0)
      000010 3D               [ 4]  436 	dec	a
      000011 32r01r00         [13]  437 	ld	(_hundred+0), a
                                    438 ;./random.c:4: return rs;
      000014 79               [ 4]  439 	ld	a, c
                                    440 ;./random.c:5: }
      000015 C9               [10]  441 	ret
                           00F380   442 _g_RDPRIM	=	0xf380
                           00F385   443 _g_WRPRIM	=	0xf385
                           00F38C   444 _g_CLPRIM	=	0xf38c
                           00F39A   445 _g_USRTAB	=	0xf39a
                           00F3DE   446 _g_CNSDFG	=	0xf3de
                           00F3DF   447 _g_RG0SAV	=	0xf3df
                           00F3E0   448 _g_RG1SAV	=	0xf3e0
                           00F3E1   449 _g_RG2SAV	=	0xf3e1
                           00F3E2   450 _g_RG3SAV	=	0xf3e2
                           00F3E3   451 _g_RG4SAV	=	0xf3e3
                           00F3E4   452 _g_RG5SAV	=	0xf3e4
                           00F3E5   453 _g_RG6SAV	=	0xf3e5
                           00F3E6   454 _g_RG7SAV	=	0xf3e6
                           00F3E7   455 _g_STATFL	=	0xf3e7
                           00F3E8   456 _g_TRGFLG	=	0xf3e8
                           00F3EC   457 _g_MAXUPD	=	0xf3ec
                           00F3EF   458 _g_MINUPD	=	0xf3ef
                           00F3F3   459 _g_QUEUES	=	0xf3f3
                           00F3F5   460 _g_FRCNEW	=	0xf3f5
                           00F3F6   461 _g_SCNCNT	=	0xf3f6
                           00F3F7   462 _g_REPCNT	=	0xf3f7
                           00F3F8   463 _g_PUTPNT	=	0xf3f8
                           00F3FA   464 _g_GETPNT	=	0xf3fa
                           00F3FC   465 _g_CS120	=	0xf3fc
                           00F401   466 _g_CS240	=	0xf401
                           00F406   467 _g_LOW	=	0xf406
                           00F408   468 _g_HIGH	=	0xf408
                           00F40A   469 _g_HEADER	=	0xf40a
                           00F40B   470 _g_ASPCT1	=	0xf40b
                           00F40D   471 _g_ASPCT2	=	0xf40d
                           00F959   472 _g_QUETAB	=	0xf959
                           00F971   473 _g_QUEBAK	=	0xf971
                           00F975   474 _g_VOICAQ	=	0xf975
                           00F9F5   475 _g_VOICBQ	=	0xf9f5
                           00FA75   476 _g_VOICCQ	=	0xfa75
                           00FAF5   477 _g_RS2IQ	=	0xfaf5
                           00FAF5   478 _g_DPPAGE	=	0xfaf5
                           00FAF6   479 _g_ACPAGE	=	0xfaf6
                           00FAF7   480 _g_AVCSAV	=	0xfaf7
                           00FAF8   481 _g_EXBRSA	=	0xfaf8
                           00FAF9   482 _g_CHRCNT	=	0xfaf9
                           00FAFA   483 _g_ROMA	=	0xfafa
                           00FAFC   484 _g_MODE	=	0xfafc
                           00FAFD   485 _g_NORUSE	=	0xfafd
                           00FAFE   486 _g_XSAVE	=	0xfafe
                           00FB00   487 _g_YSAVE	=	0xfb00
                           00FB03   488 _g_RSTMP	=	0xfb03
                           00FB03   489 _g_TOCNT	=	0xfb03
                           00FB04   490 _g_RSFCB	=	0xfb04
                           00FB06   491 _g_RSIQLN	=	0xfb06
                           00FB07   492 _g_MEXBIh	=	0xfb07
                           00FB0C   493 _g_OLDSTT	=	0xfb0c
                           00FB0C   494 _g_OLDINT	=	0xfb0c
                           00FB16   495 _g_DEVNUM	=	0xfb16
                           00FB17   496 _g_DATCNT	=	0xfb17
                           00FB1A   497 _g_ERRORS	=	0xfb1a
                           00FB1B   498 _g_FLAGS	=	0xfb1b
                           00FB1C   499 _g_ESTBLS	=	0xfb1c
                           00FB1D   500 _g_COMMSK	=	0xfb1d
                           00FB1E   501 _g_LSTCOM	=	0xfb1e
                           00FB1F   502 _g_LSTMOD	=	0xfb1f
                           00FB35   503 _g_PRSCNT	=	0xfb35
                           00FB36   504 _g_SAVSP	=	0xfb36
                           00FB38   505 _g_VOICEN	=	0xfb38
                           00FB39   506 _g_SAVVOL	=	0xfb39
                           00FB3B   507 _g_MCLLEN	=	0xfb3b
                           00FB3C   508 _g_MCLPTR	=	0xfb3c
                           00FB3E   509 _g_QUEUEN	=	0xfb3e
                           00FB3F   510 _g_MUSICF	=	0xfb3f
                           00FB40   511 _g_PLYCNT	=	0xfb40
                           00FB41   512 _g_VCBA	=	0xfb41
                           00FB66   513 _g_VCBB	=	0xfb66
                           00FB8B   514 _g_VCBC	=	0xfb8b
                           00FBB0   515 _g_ENSTOP	=	0xfbb0
                           00FBB1   516 _g_BASROM	=	0xfbb1
                           00FBB2   517 _g_LINTTB	=	0xfbb2
                           00FBCA   518 _g_FSTPOS	=	0xfbca
                           00FBCC   519 _g_CODSAV	=	0xfbcc
                           00FBCD   520 _g_FNKSWI	=	0xfbcd
                           00FBCE   521 _g_FNKFLG	=	0xfbce
                           00FBD8   522 _g_ONGSBF	=	0xfbd8
                           00FBD9   523 _g_CLIKFL	=	0xfbd9
                           00FBDA   524 _g_OLDKEY	=	0xfbda
                           00FBE5   525 _g_NEWKEY	=	0xfbe5
                           00FBF0   526 _g_KEYBUF	=	0xfbf0
                           00FC18   527 _g_LINWRK	=	0xfc18
                           00FC40   528 _g_PATWRK	=	0xfc40
                           00FC48   529 _g_BOTTOM	=	0xfc48
                           00FC4A   530 _g_HIMEM	=	0xfc4a
                           00FC4C   531 _g_TRPTBL	=	0xfc4c
                           00FC9A   532 _g_RTYCNT	=	0xfc9a
                           00FC9B   533 _g_INTFLG	=	0xfc9b
                           00FC9C   534 _g_PADY	=	0xfc9c
                           00FC9D   535 _g_PADX	=	0xfc9d
                           00FC9E   536 _g_JIFFY	=	0xfc9e
                           00FCA0   537 _g_INTVAL	=	0xfca0
                           00FCA2   538 _g_INTCNT	=	0xfca2
                           00FCA4   539 _g_LOWLIM	=	0xfca4
                           00FCA5   540 _g_WINWID	=	0xfca5
                           00FCA6   541 _g_GRPHED	=	0xfca6
                           00FCA7   542 _g_ESCCNT	=	0xfca7
                           00FCA8   543 _g_INSFLG	=	0xfca8
                           00FCA9   544 _g_CSRSW	=	0xfca9
                           00FCAA   545 _g_CSTYLE	=	0xfcaa
                           00FCAB   546 _g_CAPST	=	0xfcab
                           00FCAC   547 _g_KANAST	=	0xfcac
                           00FCAD   548 _g_KANAMD	=	0xfcad
                           00FCAE   549 _g_FLBMEM	=	0xfcae
                           00FCAF   550 _g_SCRMOD	=	0xfcaf
                           00FCB0   551 _g_OLDSCR	=	0xfcb0
                           00FCB1   552 _g_CASPRV	=	0xfcb1
                           00FCB2   553 _g_BRDATR	=	0xfcb2
                           00FCB3   554 _g_GXPOS	=	0xfcb3
                           00FCB5   555 _g_GYPOS	=	0xfcb5
                           00FCBB   556 _g_DRWFLG	=	0xfcbb
                           00FCBC   557 _g_DRWSCL	=	0xfcbc
                           00FCBD   558 _g_DRWANG	=	0xfcbd
                           00FCC1   559 _g_MNROM	=	0xfcc1
                           00FCC1   560 _g_EXPTBL	=	0xfcc1
                           00FCC5   561 _g_SLTTBL	=	0xfcc5
                           00FCC9   562 _g_SLTATR	=	0xfcc9
                           00FD09   563 _g_SLTWRK	=	0xfd09
                           00FD89   564 _g_PROCNM	=	0xfd89
                           00FFE7   565 _g_RG08SAV	=	0xffe7
                           00FFE8   566 _g_RG09SAV	=	0xffe8
                           00FFE9   567 _g_RG10SAV	=	0xffe9
                           00FFEA   568 _g_RG11SAV	=	0xffea
                           00FFEB   569 _g_RG12SAV	=	0xffeb
                           00FFEC   570 _g_RG13SAV	=	0xffec
                           00FFED   571 _g_RG14SAV	=	0xffed
                           00FFEE   572 _g_RG15SAV	=	0xffee
                           00FFEF   573 _g_RG16SAV	=	0xffef
                           00FFF0   574 _g_RG17SAV	=	0xfff0
                           00FFF1   575 _g_RG18SAV	=	0xfff1
                           00FFF2   576 _g_RG19SAV	=	0xfff2
                           00FFF3   577 _g_RG20SAV	=	0xfff3
                           00FFF4   578 _g_RG21SAV	=	0xfff4
                           00FFF5   579 _g_RG22SAV	=	0xfff5
                           00FFF6   580 _g_RG23SAV	=	0xfff6
                           00FFF7   581 _g_MINROM	=	0xfff7
                           00FFF8   582 _g_SVFFF8	=	0xfff8
                           00FFFA   583 _g_RG25SAV	=	0xfffa
                           00FFFB   584 _g_RG26SAV	=	0xfffb
                           00FFFC   585 _g_RG27SAV	=	0xfffc
                           00FFFD   586 _g_SVFFFD	=	0xfffd
                           000004   587 _g_CGTABL	=	0x0004
                           000006   588 _g_VDP_DR	=	0x0006
                           000007   589 _g_VDP_DW	=	0x0007
                           00002B   590 _g_BASRVN	=	0x002b
                           00002B   591 _g_ROMVersion	=	0x002b
                           00002D   592 _g_MSXVER	=	0x002d
                           00002E   593 _g_MSXMID	=	0x002e
                           000034   594 _g_CHAR_16	=	0x0034
                           000000   595 _g_SUBRID	=	0x0000
                           000002   596 _g_STRSRC	=	0x0002
                           00F30F   597 _g_KANJTABLE	=	0xf30f
                           00F323   598 _g_DISKVE	=	0xf323
                           00F325   599 _g_BREAKV	=	0xf325
                           00F341   600 _g_RAMAD0	=	0xf341
                           00F342   601 _g_RAMAD1	=	0xf342
                           00F343   602 _g_RAMAD2	=	0xf343
                           00F344   603 _g_RAMAD3	=	0xf344
                           00F348   604 _g_MASTER	=	0xf348
                           00F37D   605 _g_BDOS	=	0xf37d
      000016                        606 _jetpack_f0:
      000016 00                     607 	.db #0x00	; 0
      000017 03                     608 	.db #0x03	; 3
      000018 07                     609 	.db #0x07	; 7
      000019 07                     610 	.db #0x07	; 7
      00001A 13                     611 	.db #0x13	; 19
      00001B 1F                     612 	.db #0x1f	; 31
      00001C 1F                     613 	.db #0x1f	; 31
      00001D 1F                     614 	.db #0x1f	; 31
      00001E 1B                     615 	.db #0x1b	; 27
      00001F 03                     616 	.db #0x03	; 3
      000020 03                     617 	.db #0x03	; 3
      000021 02                     618 	.db #0x02	; 2
      000022 02                     619 	.db #0x02	; 2
      000023 04                     620 	.db #0x04	; 4
      000024 09                     621 	.db #0x09	; 9
      000025 00                     622 	.db #0x00	; 0
      000026 00                     623 	.db #0x00	; 0
      000027 00                     624 	.db #0x00	; 0
      000028 80                     625 	.db #0x80	; 128
      000029 00                     626 	.db #0x00	; 0
      00002A 80                     627 	.db #0x80	; 128
      00002B 00                     628 	.db #0x00	; 0
      00002C 9E                     629 	.db #0x9e	; 158
      00002D F8                     630 	.db #0xf8	; 248
      00002E 90                     631 	.db #0x90	; 144
      00002F 80                     632 	.db #0x80	; 128
      000030 80                     633 	.db #0x80	; 128
      000031 80                     634 	.db #0x80	; 128
      000032 80                     635 	.db #0x80	; 128
      000033 80                     636 	.db #0x80	; 128
      000034 00                     637 	.db #0x00	; 0
      000035 00                     638 	.db #0x00	; 0
      000036                        639 _jetpack_f1:
      000036 00                     640 	.db #0x00	; 0
      000037 03                     641 	.db #0x03	; 3
      000038 07                     642 	.db #0x07	; 7
      000039 07                     643 	.db #0x07	; 7
      00003A 13                     644 	.db #0x13	; 19
      00003B 1F                     645 	.db #0x1f	; 31
      00003C 1F                     646 	.db #0x1f	; 31
      00003D 1F                     647 	.db #0x1f	; 31
      00003E 1B                     648 	.db #0x1b	; 27
      00003F 03                     649 	.db #0x03	; 3
      000040 1B                     650 	.db #0x1b	; 27
      000041 02                     651 	.db #0x02	; 2
      000042 02                     652 	.db #0x02	; 2
      000043 04                     653 	.db #0x04	; 4
      000044 09                     654 	.db #0x09	; 9
      000045 00                     655 	.db #0x00	; 0
      000046 00                     656 	.db #0x00	; 0
      000047 00                     657 	.db #0x00	; 0
      000048 80                     658 	.db #0x80	; 128
      000049 00                     659 	.db #0x00	; 0
      00004A 80                     660 	.db #0x80	; 128
      00004B 00                     661 	.db #0x00	; 0
      00004C 9E                     662 	.db #0x9e	; 158
      00004D F8                     663 	.db #0xf8	; 248
      00004E 90                     664 	.db #0x90	; 144
      00004F 80                     665 	.db #0x80	; 128
      000050 80                     666 	.db #0x80	; 128
      000051 80                     667 	.db #0x80	; 128
      000052 80                     668 	.db #0x80	; 128
      000053 80                     669 	.db #0x80	; 128
      000054 00                     670 	.db #0x00	; 0
      000055 00                     671 	.db #0x00	; 0
      000056                        672 _asteroid:
      000056 3C                     673 	.db #0x3c	; 60
      000057 42                     674 	.db #0x42	; 66	'B'
      000058 51                     675 	.db #0x51	; 81	'Q'
      000059 8A                     676 	.db #0x8a	; 138
      00005A A1                     677 	.db #0xa1	; 161
      00005B 89                     678 	.db #0x89	; 137
      00005C 51                     679 	.db #0x51	; 81	'Q'
      00005D 2E                     680 	.db #0x2e	; 46
      00005E                        681 _shot_pattern:
      00005E 00                     682 	.db #0x00	; 0
      00005F 00                     683 	.db #0x00	; 0
      000060 00                     684 	.db #0x00	; 0
      000061 00                     685 	.db #0x00	; 0
      000062 00                     686 	.db #0x00	; 0
      000063 00                     687 	.db #0x00	; 0
      000064 00                     688 	.db #0x00	; 0
      000065 00                     689 	.db #0x00	; 0
      000066 0F                     690 	.db #0x0f	; 15
      000067 00                     691 	.db #0x00	; 0
      000068 00                     692 	.db #0x00	; 0
      000069 00                     693 	.db #0x00	; 0
      00006A 00                     694 	.db #0x00	; 0
      00006B 00                     695 	.db #0x00	; 0
      00006C 00                     696 	.db #0x00	; 0
      00006D 00                     697 	.db #0x00	; 0
      00006E 00                     698 	.db #0x00	; 0
      00006F 00                     699 	.db #0x00	; 0
      000070 00                     700 	.db #0x00	; 0
      000071 00                     701 	.db #0x00	; 0
      000072 00                     702 	.db #0x00	; 0
      000073 00                     703 	.db #0x00	; 0
      000074 00                     704 	.db #0x00	; 0
      000075 00                     705 	.db #0x00	; 0
      000076 E0                     706 	.db #0xe0	; 224
      000077 00                     707 	.db #0x00	; 0
      000078 00                     708 	.db #0x00	; 0
      000079 00                     709 	.db #0x00	; 0
      00007A 00                     710 	.db #0x00	; 0
      00007B 00                     711 	.db #0x00	; 0
      00007C 00                     712 	.db #0x00	; 0
      00007D 00                     713 	.db #0x00	; 0
      00007E                        714 _blank:
      00007E 00                     715 	.db #0x00	; 0
      00007F 00                     716 	.db #0x00	; 0
      000080 00                     717 	.db #0x00	; 0
      000081 00                     718 	.db #0x00	; 0
      000082 00                     719 	.db #0x00	; 0
      000083 00                     720 	.db #0x00	; 0
      000084 00                     721 	.db #0x00	; 0
      000085 00                     722 	.db #0x00	; 0
                                    723 ;./mandoroids.c:100: void ScrollBackgroundToTheLeft() {
                                    724 ;	---------------------------------
                                    725 ; Function ScrollBackgroundToTheLeft
                                    726 ; ---------------------------------
      000086                        727 _ScrollBackgroundToTheLeft::
                                    728 ;./mandoroids.c:102: VDP_ReadVRAM_16K(g_ScreenLayoutLow + 1,pattern_buffer,768);
      000086 01r02r00         [10]  729 	ld	bc, #_pattern_buffer
      000089 2Ar00r00         [16]  730 	ld	hl, (_g_ScreenLayoutLow)
      00008C 23               [ 6]  731 	inc	hl
      00008D 11 00 03         [10]  732 	ld	de, #0x0300
      000090 D5               [11]  733 	push	de
      000091 C5               [11]  734 	push	bc
      000092 E5               [11]  735 	push	hl
      000093 CDr00r00         [17]  736 	call	_VDP_ReadVRAM_16K
      000096 F1               [10]  737 	pop	af
      000097 F1               [10]  738 	pop	af
                                    739 ;./mandoroids.c:103: VDP_WriteVRAM_16K(pattern_buffer,g_ScreenLayoutLow,768);
      000098 21 00 03         [10]  740 	ld	hl, #0x0300
      00009B E3               [19]  741 	ex	(sp),hl
      00009C 2Ar00r00         [16]  742 	ld	hl, (_g_ScreenLayoutLow)
      00009F E5               [11]  743 	push	hl
      0000A0 21r02r00         [10]  744 	ld	hl, #_pattern_buffer
      0000A3 E5               [11]  745 	push	hl
      0000A4 CDr00r00         [17]  746 	call	_VDP_WriteVRAM_16K
      0000A7 F1               [10]  747 	pop	af
      0000A8 F1               [10]  748 	pop	af
      0000A9 F1               [10]  749 	pop	af
                                    750 ;./mandoroids.c:105: GetRandomColumn();
      0000AA CDrB6r06         [17]  751 	call	_GetRandomColumn
                                    752 ;./mandoroids.c:106: CreateColumn(31);
      0000AD 3E 1F            [ 7]  753 	ld	a, #0x1f
                                    754 ;./mandoroids.c:107: }
      0000AF C3r2Br07         [10]  755 	jp	_CreateColumn
      0000B2                        756 _g_Font_MGL_Sample6:
      0000B2 88                     757 	.db #0x88	; 136
      0000B3 68                     758 	.db #0x68	; 104	'h'
      0000B4 00                     759 	.db #0x00	; 0
      0000B5 BF                     760 	.db #0xbf	; 191
      0000B6 00                     761 	.db #0x00	; 0
      0000B7 00                     762 	.db #0x00	; 0
      0000B8 00                     763 	.db #0x00	; 0
      0000B9 00                     764 	.db #0x00	; 0
      0000BA 00                     765 	.db #0x00	; 0
      0000BB 00                     766 	.db #0x00	; 0
      0000BC 00                     767 	.db #0x00	; 0
      0000BD 00                     768 	.db #0x00	; 0
      0000BE FC                     769 	.db #0xfc	; 252
      0000BF C8                     770 	.db #0xc8	; 200
      0000C0 C8                     771 	.db #0xc8	; 200
      0000C1 C0                     772 	.db #0xc0	; 192
      0000C2 80                     773 	.db #0x80	; 128
      0000C3 94                     774 	.db #0x94	; 148
      0000C4 94                     775 	.db #0x94	; 148
      0000C5 FC                     776 	.db #0xfc	; 252
      0000C6 FC                     777 	.db #0xfc	; 252
      0000C7 70                     778 	.db #0x70	; 112	'p'
      0000C8 60                     779 	.db #0x60	; 96
      0000C9 60                     780 	.db #0x60	; 96
      0000CA 38                     781 	.db #0x38	; 56	'8'
      0000CB 00                     782 	.db #0x00	; 0
      0000CC 00                     783 	.db #0x00	; 0
      0000CD FC                     784 	.db #0xfc	; 252
      0000CE FC                     785 	.db #0xfc	; 252
      0000CF 04                     786 	.db #0x04	; 4
      0000D0 00                     787 	.db #0x00	; 0
      0000D1 F0                     788 	.db #0xf0	; 240
      0000D2 30                     789 	.db #0x30	; 48	'0'
      0000D3 20                     790 	.db #0x20	; 32
      0000D4 64                     791 	.db #0x64	; 100	'd'
      0000D5 FC                     792 	.db #0xfc	; 252
      0000D6 FC                     793 	.db #0xfc	; 252
      0000D7 C8                     794 	.db #0xc8	; 200
      0000D8 88                     795 	.db #0x88	; 136
      0000D9 18                     796 	.db #0x18	; 24
      0000DA 18                     797 	.db #0x18	; 24
      0000DB 88                     798 	.db #0x88	; 136
      0000DC C8                     799 	.db #0xc8	; 200
      0000DD FC                     800 	.db #0xfc	; 252
      0000DE FC                     801 	.db #0xfc	; 252
      0000DF 00                     802 	.db #0x00	; 0
      0000E0 68                     803 	.db #0x68	; 104	'h'
      0000E1 88                     804 	.db #0x88	; 136
      0000E2 A8                     805 	.db #0xa8	; 168
      0000E3 6C                     806 	.db #0x6c	; 108	'l'
      0000E4 00                     807 	.db #0x00	; 0
      0000E5 FC                     808 	.db #0xfc	; 252
      0000E6 C0                     809 	.db #0xc0	; 192
      0000E7 40                     810 	.db #0x40	; 64
      0000E8 40                     811 	.db #0x40	; 64
      0000E9 40                     812 	.db #0x40	; 64
      0000EA 40                     813 	.db #0x40	; 64
      0000EB 40                     814 	.db #0x40	; 64
      0000EC 40                     815 	.db #0x40	; 64
      0000ED C0                     816 	.db #0xc0	; 192
      0000EE 00                     817 	.db #0x00	; 0
      0000EF 00                     818 	.db #0x00	; 0
      0000F0 00                     819 	.db #0x00	; 0
      0000F1 30                     820 	.db #0x30	; 48	'0'
      0000F2 30                     821 	.db #0x30	; 48	'0'
      0000F3 00                     822 	.db #0x00	; 0
      0000F4 00                     823 	.db #0x00	; 0
      0000F5 00                     824 	.db #0x00	; 0
      0000F6 00                     825 	.db #0x00	; 0
      0000F7 00                     826 	.db #0x00	; 0
      0000F8 30                     827 	.db #0x30	; 48	'0'
      0000F9 48                     828 	.db #0x48	; 72	'H'
      0000FA 48                     829 	.db #0x48	; 72	'H'
      0000FB 30                     830 	.db #0x30	; 48	'0'
      0000FC 00                     831 	.db #0x00	; 0
      0000FD 00                     832 	.db #0x00	; 0
      0000FE 00                     833 	.db #0x00	; 0
      0000FF 30                     834 	.db #0x30	; 48	'0'
      000100 48                     835 	.db #0x48	; 72	'H'
      000101 84                     836 	.db #0x84	; 132
      000102 84                     837 	.db #0x84	; 132
      000103 48                     838 	.db #0x48	; 72	'H'
      000104 30                     839 	.db #0x30	; 48	'0'
      000105 00                     840 	.db #0x00	; 0
      000106 00                     841 	.db #0x00	; 0
      000107 30                     842 	.db #0x30	; 48	'0'
      000108 78                     843 	.db #0x78	; 120	'x'
      000109 FC                     844 	.db #0xfc	; 252
      00010A FC                     845 	.db #0xfc	; 252
      00010B 78                     846 	.db #0x78	; 120	'x'
      00010C 30                     847 	.db #0x30	; 48	'0'
      00010D 00                     848 	.db #0x00	; 0
      00010E 00                     849 	.db #0x00	; 0
      00010F FC                     850 	.db #0xfc	; 252
      000110 84                     851 	.db #0x84	; 132
      000111 84                     852 	.db #0x84	; 132
      000112 84                     853 	.db #0x84	; 132
      000113 84                     854 	.db #0x84	; 132
      000114 FC                     855 	.db #0xfc	; 252
      000115 00                     856 	.db #0x00	; 0
      000116 00                     857 	.db #0x00	; 0
      000117 FC                     858 	.db #0xfc	; 252
      000118 84                     859 	.db #0x84	; 132
      000119 B4                     860 	.db #0xb4	; 180
      00011A B4                     861 	.db #0xb4	; 180
      00011B 84                     862 	.db #0x84	; 132
      00011C FC                     863 	.db #0xfc	; 252
      00011D 00                     864 	.db #0x00	; 0
      00011E 81                     865 	.db #0x81	; 129
      00011F 42                     866 	.db #0x42	; 66	'B'
      000120 24                     867 	.db #0x24	; 36
      000121 18                     868 	.db #0x18	; 24
      000122 18                     869 	.db #0x18	; 24
      000123 24                     870 	.db #0x24	; 36
      000124 42                     871 	.db #0x42	; 66	'B'
      000125 81                     872 	.db #0x81	; 129
      000126 08                     873 	.db #0x08	; 8
      000127 44                     874 	.db #0x44	; 68	'D'
      000128 D4                     875 	.db #0xd4	; 212
      000129 D4                     876 	.db #0xd4	; 212
      00012A D4                     877 	.db #0xd4	; 212
      00012B 44                     878 	.db #0x44	; 68	'D'
      00012C 08                     879 	.db #0x08	; 8
      00012D 00                     880 	.db #0x00	; 0
      00012E 00                     881 	.db #0x00	; 0
      00012F 40                     882 	.db #0x40	; 64
      000130 D4                     883 	.db #0xd4	; 212
      000131 C8                     884 	.db #0xc8	; 200
      000132 D4                     885 	.db #0xd4	; 212
      000133 40                     886 	.db #0x40	; 64
      000134 00                     887 	.db #0x00	; 0
      000135 00                     888 	.db #0x00	; 0
      000136 81                     889 	.db #0x81	; 129
      000137 42                     890 	.db #0x42	; 66	'B'
      000138 24                     891 	.db #0x24	; 36
      000139 18                     892 	.db #0x18	; 24
      00013A 18                     893 	.db #0x18	; 24
      00013B 24                     894 	.db #0x24	; 36
      00013C 42                     895 	.db #0x42	; 66	'B'
      00013D 81                     896 	.db #0x81	; 129
      00013E 10                     897 	.db #0x10	; 16
      00013F 10                     898 	.db #0x10	; 16
      000140 10                     899 	.db #0x10	; 16
      000141 FF                     900 	.db #0xff	; 255
      000142 00                     901 	.db #0x00	; 0
      000143 00                     902 	.db #0x00	; 0
      000144 00                     903 	.db #0x00	; 0
      000145 00                     904 	.db #0x00	; 0
      000146 00                     905 	.db #0x00	; 0
      000147 00                     906 	.db #0x00	; 0
      000148 00                     907 	.db #0x00	; 0
      000149 FF                     908 	.db #0xff	; 255
      00014A 10                     909 	.db #0x10	; 16
      00014B 10                     910 	.db #0x10	; 16
      00014C 10                     911 	.db #0x10	; 16
      00014D 10                     912 	.db #0x10	; 16
      00014E 10                     913 	.db #0x10	; 16
      00014F 10                     914 	.db #0x10	; 16
      000150 10                     915 	.db #0x10	; 16
      000151 F0                     916 	.db #0xf0	; 240
      000152 10                     917 	.db #0x10	; 16
      000153 10                     918 	.db #0x10	; 16
      000154 10                     919 	.db #0x10	; 16
      000155 10                     920 	.db #0x10	; 16
      000156 20                     921 	.db #0x20	; 32
      000157 20                     922 	.db #0x20	; 32
      000158 20                     923 	.db #0x20	; 32
      000159 3F                     924 	.db #0x3f	; 63
      00015A 20                     925 	.db #0x20	; 32
      00015B 20                     926 	.db #0x20	; 32
      00015C 20                     927 	.db #0x20	; 32
      00015D 20                     928 	.db #0x20	; 32
      00015E 10                     929 	.db #0x10	; 16
      00015F 10                     930 	.db #0x10	; 16
      000160 10                     931 	.db #0x10	; 16
      000161 FF                     932 	.db #0xff	; 255
      000162 10                     933 	.db #0x10	; 16
      000163 10                     934 	.db #0x10	; 16
      000164 10                     935 	.db #0x10	; 16
      000165 10                     936 	.db #0x10	; 16
      000166 10                     937 	.db #0x10	; 16
      000167 10                     938 	.db #0x10	; 16
      000168 10                     939 	.db #0x10	; 16
      000169 10                     940 	.db #0x10	; 16
      00016A 10                     941 	.db #0x10	; 16
      00016B 10                     942 	.db #0x10	; 16
      00016C 10                     943 	.db #0x10	; 16
      00016D 10                     944 	.db #0x10	; 16
      00016E 00                     945 	.db #0x00	; 0
      00016F 00                     946 	.db #0x00	; 0
      000170 00                     947 	.db #0x00	; 0
      000171 FF                     948 	.db #0xff	; 255
      000172 00                     949 	.db #0x00	; 0
      000173 00                     950 	.db #0x00	; 0
      000174 00                     951 	.db #0x00	; 0
      000175 00                     952 	.db #0x00	; 0
      000176 00                     953 	.db #0x00	; 0
      000177 00                     954 	.db #0x00	; 0
      000178 00                     955 	.db #0x00	; 0
      000179 1F                     956 	.db #0x1f	; 31
      00017A 10                     957 	.db #0x10	; 16
      00017B 10                     958 	.db #0x10	; 16
      00017C 10                     959 	.db #0x10	; 16
      00017D 10                     960 	.db #0x10	; 16
      00017E 00                     961 	.db #0x00	; 0
      00017F 00                     962 	.db #0x00	; 0
      000180 00                     963 	.db #0x00	; 0
      000181 F0                     964 	.db #0xf0	; 240
      000182 10                     965 	.db #0x10	; 16
      000183 10                     966 	.db #0x10	; 16
      000184 10                     967 	.db #0x10	; 16
      000185 10                     968 	.db #0x10	; 16
      000186 10                     969 	.db #0x10	; 16
      000187 10                     970 	.db #0x10	; 16
      000188 10                     971 	.db #0x10	; 16
      000189 1F                     972 	.db #0x1f	; 31
      00018A 00                     973 	.db #0x00	; 0
      00018B 00                     974 	.db #0x00	; 0
      00018C 00                     975 	.db #0x00	; 0
      00018D 00                     976 	.db #0x00	; 0
      00018E 10                     977 	.db #0x10	; 16
      00018F 10                     978 	.db #0x10	; 16
      000190 10                     979 	.db #0x10	; 16
      000191 F0                     980 	.db #0xf0	; 240
      000192 00                     981 	.db #0x00	; 0
      000193 00                     982 	.db #0x00	; 0
      000194 00                     983 	.db #0x00	; 0
      000195 00                     984 	.db #0x00	; 0
      000196 00                     985 	.db #0x00	; 0
      000197 00                     986 	.db #0x00	; 0
      000198 00                     987 	.db #0x00	; 0
      000199 AA                     988 	.db #0xaa	; 170
      00019A 00                     989 	.db #0x00	; 0
      00019B 00                     990 	.db #0x00	; 0
      00019C 00                     991 	.db #0x00	; 0
      00019D 00                     992 	.db #0x00	; 0
      00019E 10                     993 	.db #0x10	; 16
      00019F 00                     994 	.db #0x00	; 0
      0001A0 10                     995 	.db #0x10	; 16
      0001A1 00                     996 	.db #0x00	; 0
      0001A2 10                     997 	.db #0x10	; 16
      0001A3 00                     998 	.db #0x00	; 0
      0001A4 10                     999 	.db #0x10	; 16
      0001A5 00                    1000 	.db #0x00	; 0
      0001A6 04                    1001 	.db #0x04	; 4
      0001A7 08                    1002 	.db #0x08	; 8
      0001A8 08                    1003 	.db #0x08	; 8
      0001A9 10                    1004 	.db #0x10	; 16
      0001AA 20                    1005 	.db #0x20	; 32
      0001AB 40                    1006 	.db #0x40	; 64
      0001AC 40                    1007 	.db #0x40	; 64
      0001AD 80                    1008 	.db #0x80	; 128
      0001AE 80                    1009 	.db #0x80	; 128
      0001AF 40                    1010 	.db #0x40	; 64
      0001B0 40                    1011 	.db #0x40	; 64
      0001B1 20                    1012 	.db #0x20	; 32
      0001B2 10                    1013 	.db #0x10	; 16
      0001B3 08                    1014 	.db #0x08	; 8
      0001B4 08                    1015 	.db #0x08	; 8
      0001B5 04                    1016 	.db #0x04	; 4
      0001B6 00                    1017 	.db #0x00	; 0
      0001B7 00                    1018 	.db #0x00	; 0
      0001B8 00                    1019 	.db #0x00	; 0
      0001B9 00                    1020 	.db #0x00	; 0
      0001BA 00                    1021 	.db #0x00	; 0
      0001BB 00                    1022 	.db #0x00	; 0
      0001BC 00                    1023 	.db #0x00	; 0
      0001BD 00                    1024 	.db #0x00	; 0
      0001BE 20                    1025 	.db #0x20	; 32
      0001BF 20                    1026 	.db #0x20	; 32
      0001C0 20                    1027 	.db #0x20	; 32
      0001C1 20                    1028 	.db #0x20	; 32
      0001C2 20                    1029 	.db #0x20	; 32
      0001C3 00                    1030 	.db #0x00	; 0
      0001C4 20                    1031 	.db #0x20	; 32
      0001C5 00                    1032 	.db #0x00	; 0
      0001C6 24                    1033 	.db #0x24	; 36
      0001C7 24                    1034 	.db #0x24	; 36
      0001C8 48                    1035 	.db #0x48	; 72	'H'
      0001C9 00                    1036 	.db #0x00	; 0
      0001CA 00                    1037 	.db #0x00	; 0
      0001CB 00                    1038 	.db #0x00	; 0
      0001CC 00                    1039 	.db #0x00	; 0
      0001CD 00                    1040 	.db #0x00	; 0
      0001CE 28                    1041 	.db #0x28	; 40
      0001CF 7C                    1042 	.db #0x7c	; 124
      0001D0 28                    1043 	.db #0x28	; 40
      0001D1 28                    1044 	.db #0x28	; 40
      0001D2 28                    1045 	.db #0x28	; 40
      0001D3 7C                    1046 	.db #0x7c	; 124
      0001D4 28                    1047 	.db #0x28	; 40
      0001D5 00                    1048 	.db #0x00	; 0
      0001D6 10                    1049 	.db #0x10	; 16
      0001D7 38                    1050 	.db #0x38	; 56	'8'
      0001D8 50                    1051 	.db #0x50	; 80	'P'
      0001D9 38                    1052 	.db #0x38	; 56	'8'
      0001DA 14                    1053 	.db #0x14	; 20
      0001DB 54                    1054 	.db #0x54	; 84	'T'
      0001DC 38                    1055 	.db #0x38	; 56	'8'
      0001DD 10                    1056 	.db #0x10	; 16
      0001DE 64                    1057 	.db #0x64	; 100	'd'
      0001DF 68                    1058 	.db #0x68	; 104	'h'
      0001E0 08                    1059 	.db #0x08	; 8
      0001E1 10                    1060 	.db #0x10	; 16
      0001E2 20                    1061 	.db #0x20	; 32
      0001E3 2C                    1062 	.db #0x2c	; 44
      0001E4 4C                    1063 	.db #0x4c	; 76	'L'
      0001E5 00                    1064 	.db #0x00	; 0
      0001E6 30                    1065 	.db #0x30	; 48	'0'
      0001E7 48                    1066 	.db #0x48	; 72	'H'
      0001E8 48                    1067 	.db #0x48	; 72	'H'
      0001E9 30                    1068 	.db #0x30	; 48	'0'
      0001EA 54                    1069 	.db #0x54	; 84	'T'
      0001EB 48                    1070 	.db #0x48	; 72	'H'
      0001EC 34                    1071 	.db #0x34	; 52	'4'
      0001ED 00                    1072 	.db #0x00	; 0
      0001EE 10                    1073 	.db #0x10	; 16
      0001EF 10                    1074 	.db #0x10	; 16
      0001F0 20                    1075 	.db #0x20	; 32
      0001F1 00                    1076 	.db #0x00	; 0
      0001F2 00                    1077 	.db #0x00	; 0
      0001F3 00                    1078 	.db #0x00	; 0
      0001F4 00                    1079 	.db #0x00	; 0
      0001F5 00                    1080 	.db #0x00	; 0
      0001F6 08                    1081 	.db #0x08	; 8
      0001F7 10                    1082 	.db #0x10	; 16
      0001F8 10                    1083 	.db #0x10	; 16
      0001F9 10                    1084 	.db #0x10	; 16
      0001FA 10                    1085 	.db #0x10	; 16
      0001FB 10                    1086 	.db #0x10	; 16
      0001FC 08                    1087 	.db #0x08	; 8
      0001FD 00                    1088 	.db #0x00	; 0
      0001FE 10                    1089 	.db #0x10	; 16
      0001FF 08                    1090 	.db #0x08	; 8
      000200 08                    1091 	.db #0x08	; 8
      000201 08                    1092 	.db #0x08	; 8
      000202 08                    1093 	.db #0x08	; 8
      000203 08                    1094 	.db #0x08	; 8
      000204 10                    1095 	.db #0x10	; 16
      000205 00                    1096 	.db #0x00	; 0
      000206 00                    1097 	.db #0x00	; 0
      000207 00                    1098 	.db #0x00	; 0
      000208 28                    1099 	.db #0x28	; 40
      000209 10                    1100 	.db #0x10	; 16
      00020A 28                    1101 	.db #0x28	; 40
      00020B 00                    1102 	.db #0x00	; 0
      00020C 00                    1103 	.db #0x00	; 0
      00020D 00                    1104 	.db #0x00	; 0
      00020E 00                    1105 	.db #0x00	; 0
      00020F 10                    1106 	.db #0x10	; 16
      000210 10                    1107 	.db #0x10	; 16
      000211 7C                    1108 	.db #0x7c	; 124
      000212 10                    1109 	.db #0x10	; 16
      000213 10                    1110 	.db #0x10	; 16
      000214 00                    1111 	.db #0x00	; 0
      000215 00                    1112 	.db #0x00	; 0
      000216 00                    1113 	.db #0x00	; 0
      000217 00                    1114 	.db #0x00	; 0
      000218 00                    1115 	.db #0x00	; 0
      000219 00                    1116 	.db #0x00	; 0
      00021A 00                    1117 	.db #0x00	; 0
      00021B 10                    1118 	.db #0x10	; 16
      00021C 10                    1119 	.db #0x10	; 16
      00021D 20                    1120 	.db #0x20	; 32
      00021E 00                    1121 	.db #0x00	; 0
      00021F 00                    1122 	.db #0x00	; 0
      000220 00                    1123 	.db #0x00	; 0
      000221 7C                    1124 	.db #0x7c	; 124
      000222 00                    1125 	.db #0x00	; 0
      000223 00                    1126 	.db #0x00	; 0
      000224 00                    1127 	.db #0x00	; 0
      000225 00                    1128 	.db #0x00	; 0
      000226 00                    1129 	.db #0x00	; 0
      000227 00                    1130 	.db #0x00	; 0
      000228 00                    1131 	.db #0x00	; 0
      000229 00                    1132 	.db #0x00	; 0
      00022A 00                    1133 	.db #0x00	; 0
      00022B 00                    1134 	.db #0x00	; 0
      00022C 20                    1135 	.db #0x20	; 32
      00022D 00                    1136 	.db #0x00	; 0
      00022E 04                    1137 	.db #0x04	; 4
      00022F 08                    1138 	.db #0x08	; 8
      000230 08                    1139 	.db #0x08	; 8
      000231 10                    1140 	.db #0x10	; 16
      000232 20                    1141 	.db #0x20	; 32
      000233 20                    1142 	.db #0x20	; 32
      000234 40                    1143 	.db #0x40	; 64
      000235 00                    1144 	.db #0x00	; 0
      000236 38                    1145 	.db #0x38	; 56	'8'
      000237 44                    1146 	.db #0x44	; 68	'D'
      000238 4C                    1147 	.db #0x4c	; 76	'L'
      000239 54                    1148 	.db #0x54	; 84	'T'
      00023A 64                    1149 	.db #0x64	; 100	'd'
      00023B 44                    1150 	.db #0x44	; 68	'D'
      00023C 38                    1151 	.db #0x38	; 56	'8'
      00023D 00                    1152 	.db #0x00	; 0
      00023E 10                    1153 	.db #0x10	; 16
      00023F 30                    1154 	.db #0x30	; 48	'0'
      000240 50                    1155 	.db #0x50	; 80	'P'
      000241 10                    1156 	.db #0x10	; 16
      000242 10                    1157 	.db #0x10	; 16
      000243 10                    1158 	.db #0x10	; 16
      000244 7C                    1159 	.db #0x7c	; 124
      000245 00                    1160 	.db #0x00	; 0
      000246 38                    1161 	.db #0x38	; 56	'8'
      000247 44                    1162 	.db #0x44	; 68	'D'
      000248 04                    1163 	.db #0x04	; 4
      000249 18                    1164 	.db #0x18	; 24
      00024A 20                    1165 	.db #0x20	; 32
      00024B 40                    1166 	.db #0x40	; 64
      00024C 7C                    1167 	.db #0x7c	; 124
      00024D 00                    1168 	.db #0x00	; 0
      00024E 38                    1169 	.db #0x38	; 56	'8'
      00024F 44                    1170 	.db #0x44	; 68	'D'
      000250 04                    1171 	.db #0x04	; 4
      000251 18                    1172 	.db #0x18	; 24
      000252 04                    1173 	.db #0x04	; 4
      000253 44                    1174 	.db #0x44	; 68	'D'
      000254 38                    1175 	.db #0x38	; 56	'8'
      000255 00                    1176 	.db #0x00	; 0
      000256 10                    1177 	.db #0x10	; 16
      000257 20                    1178 	.db #0x20	; 32
      000258 48                    1179 	.db #0x48	; 72	'H'
      000259 7C                    1180 	.db #0x7c	; 124
      00025A 08                    1181 	.db #0x08	; 8
      00025B 08                    1182 	.db #0x08	; 8
      00025C 08                    1183 	.db #0x08	; 8
      00025D 00                    1184 	.db #0x00	; 0
      00025E 7C                    1185 	.db #0x7c	; 124
      00025F 40                    1186 	.db #0x40	; 64
      000260 78                    1187 	.db #0x78	; 120	'x'
      000261 04                    1188 	.db #0x04	; 4
      000262 04                    1189 	.db #0x04	; 4
      000263 44                    1190 	.db #0x44	; 68	'D'
      000264 38                    1191 	.db #0x38	; 56	'8'
      000265 00                    1192 	.db #0x00	; 0
      000266 38                    1193 	.db #0x38	; 56	'8'
      000267 44                    1194 	.db #0x44	; 68	'D'
      000268 40                    1195 	.db #0x40	; 64
      000269 78                    1196 	.db #0x78	; 120	'x'
      00026A 44                    1197 	.db #0x44	; 68	'D'
      00026B 44                    1198 	.db #0x44	; 68	'D'
      00026C 38                    1199 	.db #0x38	; 56	'8'
      00026D 00                    1200 	.db #0x00	; 0
      00026E 7C                    1201 	.db #0x7c	; 124
      00026F 04                    1202 	.db #0x04	; 4
      000270 08                    1203 	.db #0x08	; 8
      000271 08                    1204 	.db #0x08	; 8
      000272 10                    1205 	.db #0x10	; 16
      000273 10                    1206 	.db #0x10	; 16
      000274 10                    1207 	.db #0x10	; 16
      000275 00                    1208 	.db #0x00	; 0
      000276 38                    1209 	.db #0x38	; 56	'8'
      000277 44                    1210 	.db #0x44	; 68	'D'
      000278 44                    1211 	.db #0x44	; 68	'D'
      000279 38                    1212 	.db #0x38	; 56	'8'
      00027A 44                    1213 	.db #0x44	; 68	'D'
      00027B 44                    1214 	.db #0x44	; 68	'D'
      00027C 38                    1215 	.db #0x38	; 56	'8'
      00027D 00                    1216 	.db #0x00	; 0
      00027E 38                    1217 	.db #0x38	; 56	'8'
      00027F 44                    1218 	.db #0x44	; 68	'D'
      000280 44                    1219 	.db #0x44	; 68	'D'
      000281 3C                    1220 	.db #0x3c	; 60
      000282 04                    1221 	.db #0x04	; 4
      000283 44                    1222 	.db #0x44	; 68	'D'
      000284 38                    1223 	.db #0x38	; 56	'8'
      000285 00                    1224 	.db #0x00	; 0
      000286 00                    1225 	.db #0x00	; 0
      000287 00                    1226 	.db #0x00	; 0
      000288 20                    1227 	.db #0x20	; 32
      000289 00                    1228 	.db #0x00	; 0
      00028A 00                    1229 	.db #0x00	; 0
      00028B 20                    1230 	.db #0x20	; 32
      00028C 00                    1231 	.db #0x00	; 0
      00028D 00                    1232 	.db #0x00	; 0
      00028E 00                    1233 	.db #0x00	; 0
      00028F 00                    1234 	.db #0x00	; 0
      000290 10                    1235 	.db #0x10	; 16
      000291 00                    1236 	.db #0x00	; 0
      000292 00                    1237 	.db #0x00	; 0
      000293 10                    1238 	.db #0x10	; 16
      000294 10                    1239 	.db #0x10	; 16
      000295 20                    1240 	.db #0x20	; 32
      000296 04                    1241 	.db #0x04	; 4
      000297 08                    1242 	.db #0x08	; 8
      000298 10                    1243 	.db #0x10	; 16
      000299 20                    1244 	.db #0x20	; 32
      00029A 10                    1245 	.db #0x10	; 16
      00029B 08                    1246 	.db #0x08	; 8
      00029C 04                    1247 	.db #0x04	; 4
      00029D 00                    1248 	.db #0x00	; 0
      00029E 00                    1249 	.db #0x00	; 0
      00029F 00                    1250 	.db #0x00	; 0
      0002A0 7C                    1251 	.db #0x7c	; 124
      0002A1 00                    1252 	.db #0x00	; 0
      0002A2 7C                    1253 	.db #0x7c	; 124
      0002A3 00                    1254 	.db #0x00	; 0
      0002A4 00                    1255 	.db #0x00	; 0
      0002A5 00                    1256 	.db #0x00	; 0
      0002A6 20                    1257 	.db #0x20	; 32
      0002A7 10                    1258 	.db #0x10	; 16
      0002A8 08                    1259 	.db #0x08	; 8
      0002A9 04                    1260 	.db #0x04	; 4
      0002AA 08                    1261 	.db #0x08	; 8
      0002AB 10                    1262 	.db #0x10	; 16
      0002AC 20                    1263 	.db #0x20	; 32
      0002AD 00                    1264 	.db #0x00	; 0
      0002AE 38                    1265 	.db #0x38	; 56	'8'
      0002AF 44                    1266 	.db #0x44	; 68	'D'
      0002B0 04                    1267 	.db #0x04	; 4
      0002B1 08                    1268 	.db #0x08	; 8
      0002B2 10                    1269 	.db #0x10	; 16
      0002B3 00                    1270 	.db #0x00	; 0
      0002B4 10                    1271 	.db #0x10	; 16
      0002B5 00                    1272 	.db #0x00	; 0
      0002B6 38                    1273 	.db #0x38	; 56	'8'
      0002B7 44                    1274 	.db #0x44	; 68	'D'
      0002B8 04                    1275 	.db #0x04	; 4
      0002B9 34                    1276 	.db #0x34	; 52	'4'
      0002BA 54                    1277 	.db #0x54	; 84	'T'
      0002BB 54                    1278 	.db #0x54	; 84	'T'
      0002BC 38                    1279 	.db #0x38	; 56	'8'
      0002BD 00                    1280 	.db #0x00	; 0
      0002BE 38                    1281 	.db #0x38	; 56	'8'
      0002BF 44                    1282 	.db #0x44	; 68	'D'
      0002C0 44                    1283 	.db #0x44	; 68	'D'
      0002C1 7C                    1284 	.db #0x7c	; 124
      0002C2 44                    1285 	.db #0x44	; 68	'D'
      0002C3 44                    1286 	.db #0x44	; 68	'D'
      0002C4 44                    1287 	.db #0x44	; 68	'D'
      0002C5 00                    1288 	.db #0x00	; 0
      0002C6 78                    1289 	.db #0x78	; 120	'x'
      0002C7 44                    1290 	.db #0x44	; 68	'D'
      0002C8 44                    1291 	.db #0x44	; 68	'D'
      0002C9 78                    1292 	.db #0x78	; 120	'x'
      0002CA 44                    1293 	.db #0x44	; 68	'D'
      0002CB 44                    1294 	.db #0x44	; 68	'D'
      0002CC 78                    1295 	.db #0x78	; 120	'x'
      0002CD 00                    1296 	.db #0x00	; 0
      0002CE 38                    1297 	.db #0x38	; 56	'8'
      0002CF 44                    1298 	.db #0x44	; 68	'D'
      0002D0 40                    1299 	.db #0x40	; 64
      0002D1 40                    1300 	.db #0x40	; 64
      0002D2 40                    1301 	.db #0x40	; 64
      0002D3 44                    1302 	.db #0x44	; 68	'D'
      0002D4 38                    1303 	.db #0x38	; 56	'8'
      0002D5 00                    1304 	.db #0x00	; 0
      0002D6 70                    1305 	.db #0x70	; 112	'p'
      0002D7 48                    1306 	.db #0x48	; 72	'H'
      0002D8 44                    1307 	.db #0x44	; 68	'D'
      0002D9 44                    1308 	.db #0x44	; 68	'D'
      0002DA 44                    1309 	.db #0x44	; 68	'D'
      0002DB 48                    1310 	.db #0x48	; 72	'H'
      0002DC 70                    1311 	.db #0x70	; 112	'p'
      0002DD 00                    1312 	.db #0x00	; 0
      0002DE 7C                    1313 	.db #0x7c	; 124
      0002DF 40                    1314 	.db #0x40	; 64
      0002E0 40                    1315 	.db #0x40	; 64
      0002E1 70                    1316 	.db #0x70	; 112	'p'
      0002E2 40                    1317 	.db #0x40	; 64
      0002E3 40                    1318 	.db #0x40	; 64
      0002E4 7C                    1319 	.db #0x7c	; 124
      0002E5 00                    1320 	.db #0x00	; 0
      0002E6 7C                    1321 	.db #0x7c	; 124
      0002E7 40                    1322 	.db #0x40	; 64
      0002E8 40                    1323 	.db #0x40	; 64
      0002E9 70                    1324 	.db #0x70	; 112	'p'
      0002EA 40                    1325 	.db #0x40	; 64
      0002EB 40                    1326 	.db #0x40	; 64
      0002EC 40                    1327 	.db #0x40	; 64
      0002ED 00                    1328 	.db #0x00	; 0
      0002EE 38                    1329 	.db #0x38	; 56	'8'
      0002EF 40                    1330 	.db #0x40	; 64
      0002F0 40                    1331 	.db #0x40	; 64
      0002F1 4C                    1332 	.db #0x4c	; 76	'L'
      0002F2 44                    1333 	.db #0x44	; 68	'D'
      0002F3 44                    1334 	.db #0x44	; 68	'D'
      0002F4 38                    1335 	.db #0x38	; 56	'8'
      0002F5 00                    1336 	.db #0x00	; 0
      0002F6 44                    1337 	.db #0x44	; 68	'D'
      0002F7 44                    1338 	.db #0x44	; 68	'D'
      0002F8 44                    1339 	.db #0x44	; 68	'D'
      0002F9 7C                    1340 	.db #0x7c	; 124
      0002FA 44                    1341 	.db #0x44	; 68	'D'
      0002FB 44                    1342 	.db #0x44	; 68	'D'
      0002FC 44                    1343 	.db #0x44	; 68	'D'
      0002FD 00                    1344 	.db #0x00	; 0
      0002FE 38                    1345 	.db #0x38	; 56	'8'
      0002FF 10                    1346 	.db #0x10	; 16
      000300 10                    1347 	.db #0x10	; 16
      000301 10                    1348 	.db #0x10	; 16
      000302 10                    1349 	.db #0x10	; 16
      000303 10                    1350 	.db #0x10	; 16
      000304 38                    1351 	.db #0x38	; 56	'8'
      000305 00                    1352 	.db #0x00	; 0
      000306 3C                    1353 	.db #0x3c	; 60
      000307 08                    1354 	.db #0x08	; 8
      000308 08                    1355 	.db #0x08	; 8
      000309 08                    1356 	.db #0x08	; 8
      00030A 08                    1357 	.db #0x08	; 8
      00030B 48                    1358 	.db #0x48	; 72	'H'
      00030C 30                    1359 	.db #0x30	; 48	'0'
      00030D 00                    1360 	.db #0x00	; 0
      00030E 44                    1361 	.db #0x44	; 68	'D'
      00030F 48                    1362 	.db #0x48	; 72	'H'
      000310 50                    1363 	.db #0x50	; 80	'P'
      000311 60                    1364 	.db #0x60	; 96
      000312 50                    1365 	.db #0x50	; 80	'P'
      000313 48                    1366 	.db #0x48	; 72	'H'
      000314 44                    1367 	.db #0x44	; 68	'D'
      000315 00                    1368 	.db #0x00	; 0
      000316 40                    1369 	.db #0x40	; 64
      000317 40                    1370 	.db #0x40	; 64
      000318 40                    1371 	.db #0x40	; 64
      000319 40                    1372 	.db #0x40	; 64
      00031A 40                    1373 	.db #0x40	; 64
      00031B 40                    1374 	.db #0x40	; 64
      00031C 7C                    1375 	.db #0x7c	; 124
      00031D 00                    1376 	.db #0x00	; 0
      00031E 44                    1377 	.db #0x44	; 68	'D'
      00031F 6C                    1378 	.db #0x6c	; 108	'l'
      000320 54                    1379 	.db #0x54	; 84	'T'
      000321 44                    1380 	.db #0x44	; 68	'D'
      000322 44                    1381 	.db #0x44	; 68	'D'
      000323 44                    1382 	.db #0x44	; 68	'D'
      000324 44                    1383 	.db #0x44	; 68	'D'
      000325 00                    1384 	.db #0x00	; 0
      000326 44                    1385 	.db #0x44	; 68	'D'
      000327 64                    1386 	.db #0x64	; 100	'd'
      000328 64                    1387 	.db #0x64	; 100	'd'
      000329 54                    1388 	.db #0x54	; 84	'T'
      00032A 4C                    1389 	.db #0x4c	; 76	'L'
      00032B 4C                    1390 	.db #0x4c	; 76	'L'
      00032C 44                    1391 	.db #0x44	; 68	'D'
      00032D 00                    1392 	.db #0x00	; 0
      00032E 38                    1393 	.db #0x38	; 56	'8'
      00032F 44                    1394 	.db #0x44	; 68	'D'
      000330 44                    1395 	.db #0x44	; 68	'D'
      000331 44                    1396 	.db #0x44	; 68	'D'
      000332 44                    1397 	.db #0x44	; 68	'D'
      000333 44                    1398 	.db #0x44	; 68	'D'
      000334 38                    1399 	.db #0x38	; 56	'8'
      000335 00                    1400 	.db #0x00	; 0
      000336 78                    1401 	.db #0x78	; 120	'x'
      000337 44                    1402 	.db #0x44	; 68	'D'
      000338 44                    1403 	.db #0x44	; 68	'D'
      000339 78                    1404 	.db #0x78	; 120	'x'
      00033A 40                    1405 	.db #0x40	; 64
      00033B 40                    1406 	.db #0x40	; 64
      00033C 40                    1407 	.db #0x40	; 64
      00033D 00                    1408 	.db #0x00	; 0
      00033E 38                    1409 	.db #0x38	; 56	'8'
      00033F 44                    1410 	.db #0x44	; 68	'D'
      000340 44                    1411 	.db #0x44	; 68	'D'
      000341 44                    1412 	.db #0x44	; 68	'D'
      000342 54                    1413 	.db #0x54	; 84	'T'
      000343 48                    1414 	.db #0x48	; 72	'H'
      000344 34                    1415 	.db #0x34	; 52	'4'
      000345 00                    1416 	.db #0x00	; 0
      000346 78                    1417 	.db #0x78	; 120	'x'
      000347 44                    1418 	.db #0x44	; 68	'D'
      000348 44                    1419 	.db #0x44	; 68	'D'
      000349 78                    1420 	.db #0x78	; 120	'x'
      00034A 44                    1421 	.db #0x44	; 68	'D'
      00034B 44                    1422 	.db #0x44	; 68	'D'
      00034C 44                    1423 	.db #0x44	; 68	'D'
      00034D 00                    1424 	.db #0x00	; 0
      00034E 38                    1425 	.db #0x38	; 56	'8'
      00034F 44                    1426 	.db #0x44	; 68	'D'
      000350 40                    1427 	.db #0x40	; 64
      000351 38                    1428 	.db #0x38	; 56	'8'
      000352 04                    1429 	.db #0x04	; 4
      000353 44                    1430 	.db #0x44	; 68	'D'
      000354 38                    1431 	.db #0x38	; 56	'8'
      000355 00                    1432 	.db #0x00	; 0
      000356 7C                    1433 	.db #0x7c	; 124
      000357 10                    1434 	.db #0x10	; 16
      000358 10                    1435 	.db #0x10	; 16
      000359 10                    1436 	.db #0x10	; 16
      00035A 10                    1437 	.db #0x10	; 16
      00035B 10                    1438 	.db #0x10	; 16
      00035C 10                    1439 	.db #0x10	; 16
      00035D 00                    1440 	.db #0x00	; 0
      00035E 44                    1441 	.db #0x44	; 68	'D'
      00035F 44                    1442 	.db #0x44	; 68	'D'
      000360 44                    1443 	.db #0x44	; 68	'D'
      000361 44                    1444 	.db #0x44	; 68	'D'
      000362 44                    1445 	.db #0x44	; 68	'D'
      000363 44                    1446 	.db #0x44	; 68	'D'
      000364 38                    1447 	.db #0x38	; 56	'8'
      000365 00                    1448 	.db #0x00	; 0
      000366 44                    1449 	.db #0x44	; 68	'D'
      000367 44                    1450 	.db #0x44	; 68	'D'
      000368 44                    1451 	.db #0x44	; 68	'D'
      000369 44                    1452 	.db #0x44	; 68	'D'
      00036A 28                    1453 	.db #0x28	; 40
      00036B 28                    1454 	.db #0x28	; 40
      00036C 10                    1455 	.db #0x10	; 16
      00036D 00                    1456 	.db #0x00	; 0
      00036E 44                    1457 	.db #0x44	; 68	'D'
      00036F 44                    1458 	.db #0x44	; 68	'D'
      000370 44                    1459 	.db #0x44	; 68	'D'
      000371 44                    1460 	.db #0x44	; 68	'D'
      000372 54                    1461 	.db #0x54	; 84	'T'
      000373 54                    1462 	.db #0x54	; 84	'T'
      000374 28                    1463 	.db #0x28	; 40
      000375 00                    1464 	.db #0x00	; 0
      000376 44                    1465 	.db #0x44	; 68	'D'
      000377 44                    1466 	.db #0x44	; 68	'D'
      000378 28                    1467 	.db #0x28	; 40
      000379 10                    1468 	.db #0x10	; 16
      00037A 28                    1469 	.db #0x28	; 40
      00037B 44                    1470 	.db #0x44	; 68	'D'
      00037C 44                    1471 	.db #0x44	; 68	'D'
      00037D 00                    1472 	.db #0x00	; 0
      00037E 44                    1473 	.db #0x44	; 68	'D'
      00037F 44                    1474 	.db #0x44	; 68	'D'
      000380 28                    1475 	.db #0x28	; 40
      000381 10                    1476 	.db #0x10	; 16
      000382 10                    1477 	.db #0x10	; 16
      000383 10                    1478 	.db #0x10	; 16
      000384 10                    1479 	.db #0x10	; 16
      000385 00                    1480 	.db #0x00	; 0
      000386 7C                    1481 	.db #0x7c	; 124
      000387 04                    1482 	.db #0x04	; 4
      000388 08                    1483 	.db #0x08	; 8
      000389 10                    1484 	.db #0x10	; 16
      00038A 20                    1485 	.db #0x20	; 32
      00038B 40                    1486 	.db #0x40	; 64
      00038C 7C                    1487 	.db #0x7c	; 124
      00038D 00                    1488 	.db #0x00	; 0
      00038E 38                    1489 	.db #0x38	; 56	'8'
      00038F 20                    1490 	.db #0x20	; 32
      000390 20                    1491 	.db #0x20	; 32
      000391 20                    1492 	.db #0x20	; 32
      000392 20                    1493 	.db #0x20	; 32
      000393 20                    1494 	.db #0x20	; 32
      000394 38                    1495 	.db #0x38	; 56	'8'
      000395 00                    1496 	.db #0x00	; 0
      000396 40                    1497 	.db #0x40	; 64
      000397 20                    1498 	.db #0x20	; 32
      000398 20                    1499 	.db #0x20	; 32
      000399 10                    1500 	.db #0x10	; 16
      00039A 08                    1501 	.db #0x08	; 8
      00039B 08                    1502 	.db #0x08	; 8
      00039C 04                    1503 	.db #0x04	; 4
      00039D 00                    1504 	.db #0x00	; 0
      00039E 38                    1505 	.db #0x38	; 56	'8'
      00039F 08                    1506 	.db #0x08	; 8
      0003A0 08                    1507 	.db #0x08	; 8
      0003A1 08                    1508 	.db #0x08	; 8
      0003A2 08                    1509 	.db #0x08	; 8
      0003A3 08                    1510 	.db #0x08	; 8
      0003A4 38                    1511 	.db #0x38	; 56	'8'
      0003A5 00                    1512 	.db #0x00	; 0
      0003A6 10                    1513 	.db #0x10	; 16
      0003A7 28                    1514 	.db #0x28	; 40
      0003A8 44                    1515 	.db #0x44	; 68	'D'
      0003A9 00                    1516 	.db #0x00	; 0
      0003AA 00                    1517 	.db #0x00	; 0
      0003AB 00                    1518 	.db #0x00	; 0
      0003AC 00                    1519 	.db #0x00	; 0
      0003AD 00                    1520 	.db #0x00	; 0
      0003AE 00                    1521 	.db #0x00	; 0
      0003AF 00                    1522 	.db #0x00	; 0
      0003B0 00                    1523 	.db #0x00	; 0
      0003B1 00                    1524 	.db #0x00	; 0
      0003B2 00                    1525 	.db #0x00	; 0
      0003B3 00                    1526 	.db #0x00	; 0
      0003B4 7C                    1527 	.db #0x7c	; 124
      0003B5 00                    1528 	.db #0x00	; 0
      0003B6 20                    1529 	.db #0x20	; 32
      0003B7 20                    1530 	.db #0x20	; 32
      0003B8 10                    1531 	.db #0x10	; 16
      0003B9 00                    1532 	.db #0x00	; 0
      0003BA 00                    1533 	.db #0x00	; 0
      0003BB 00                    1534 	.db #0x00	; 0
      0003BC 00                    1535 	.db #0x00	; 0
      0003BD 00                    1536 	.db #0x00	; 0
      0003BE 00                    1537 	.db #0x00	; 0
      0003BF 00                    1538 	.db #0x00	; 0
      0003C0 38                    1539 	.db #0x38	; 56	'8'
      0003C1 04                    1540 	.db #0x04	; 4
      0003C2 3C                    1541 	.db #0x3c	; 60
      0003C3 44                    1542 	.db #0x44	; 68	'D'
      0003C4 3C                    1543 	.db #0x3c	; 60
      0003C5 00                    1544 	.db #0x00	; 0
      0003C6 40                    1545 	.db #0x40	; 64
      0003C7 40                    1546 	.db #0x40	; 64
      0003C8 40                    1547 	.db #0x40	; 64
      0003C9 78                    1548 	.db #0x78	; 120	'x'
      0003CA 44                    1549 	.db #0x44	; 68	'D'
      0003CB 44                    1550 	.db #0x44	; 68	'D'
      0003CC 78                    1551 	.db #0x78	; 120	'x'
      0003CD 00                    1552 	.db #0x00	; 0
      0003CE 00                    1553 	.db #0x00	; 0
      0003CF 00                    1554 	.db #0x00	; 0
      0003D0 38                    1555 	.db #0x38	; 56	'8'
      0003D1 44                    1556 	.db #0x44	; 68	'D'
      0003D2 40                    1557 	.db #0x40	; 64
      0003D3 44                    1558 	.db #0x44	; 68	'D'
      0003D4 38                    1559 	.db #0x38	; 56	'8'
      0003D5 00                    1560 	.db #0x00	; 0
      0003D6 04                    1561 	.db #0x04	; 4
      0003D7 04                    1562 	.db #0x04	; 4
      0003D8 04                    1563 	.db #0x04	; 4
      0003D9 3C                    1564 	.db #0x3c	; 60
      0003DA 44                    1565 	.db #0x44	; 68	'D'
      0003DB 44                    1566 	.db #0x44	; 68	'D'
      0003DC 3C                    1567 	.db #0x3c	; 60
      0003DD 00                    1568 	.db #0x00	; 0
      0003DE 00                    1569 	.db #0x00	; 0
      0003DF 00                    1570 	.db #0x00	; 0
      0003E0 38                    1571 	.db #0x38	; 56	'8'
      0003E1 44                    1572 	.db #0x44	; 68	'D'
      0003E2 7C                    1573 	.db #0x7c	; 124
      0003E3 40                    1574 	.db #0x40	; 64
      0003E4 3C                    1575 	.db #0x3c	; 60
      0003E5 00                    1576 	.db #0x00	; 0
      0003E6 18                    1577 	.db #0x18	; 24
      0003E7 24                    1578 	.db #0x24	; 36
      0003E8 20                    1579 	.db #0x20	; 32
      0003E9 70                    1580 	.db #0x70	; 112	'p'
      0003EA 20                    1581 	.db #0x20	; 32
      0003EB 20                    1582 	.db #0x20	; 32
      0003EC 20                    1583 	.db #0x20	; 32
      0003ED 00                    1584 	.db #0x00	; 0
      0003EE 00                    1585 	.db #0x00	; 0
      0003EF 00                    1586 	.db #0x00	; 0
      0003F0 3C                    1587 	.db #0x3c	; 60
      0003F1 44                    1588 	.db #0x44	; 68	'D'
      0003F2 44                    1589 	.db #0x44	; 68	'D'
      0003F3 3C                    1590 	.db #0x3c	; 60
      0003F4 04                    1591 	.db #0x04	; 4
      0003F5 78                    1592 	.db #0x78	; 120	'x'
      0003F6 40                    1593 	.db #0x40	; 64
      0003F7 40                    1594 	.db #0x40	; 64
      0003F8 40                    1595 	.db #0x40	; 64
      0003F9 78                    1596 	.db #0x78	; 120	'x'
      0003FA 44                    1597 	.db #0x44	; 68	'D'
      0003FB 44                    1598 	.db #0x44	; 68	'D'
      0003FC 44                    1599 	.db #0x44	; 68	'D'
      0003FD 00                    1600 	.db #0x00	; 0
      0003FE 10                    1601 	.db #0x10	; 16
      0003FF 00                    1602 	.db #0x00	; 0
      000400 10                    1603 	.db #0x10	; 16
      000401 10                    1604 	.db #0x10	; 16
      000402 10                    1605 	.db #0x10	; 16
      000403 10                    1606 	.db #0x10	; 16
      000404 18                    1607 	.db #0x18	; 24
      000405 00                    1608 	.db #0x00	; 0
      000406 08                    1609 	.db #0x08	; 8
      000407 00                    1610 	.db #0x00	; 0
      000408 08                    1611 	.db #0x08	; 8
      000409 08                    1612 	.db #0x08	; 8
      00040A 08                    1613 	.db #0x08	; 8
      00040B 08                    1614 	.db #0x08	; 8
      00040C 48                    1615 	.db #0x48	; 72	'H'
      00040D 30                    1616 	.db #0x30	; 48	'0'
      00040E 20                    1617 	.db #0x20	; 32
      00040F 20                    1618 	.db #0x20	; 32
      000410 24                    1619 	.db #0x24	; 36
      000411 28                    1620 	.db #0x28	; 40
      000412 30                    1621 	.db #0x30	; 48	'0'
      000413 28                    1622 	.db #0x28	; 40
      000414 24                    1623 	.db #0x24	; 36
      000415 00                    1624 	.db #0x00	; 0
      000416 10                    1625 	.db #0x10	; 16
      000417 10                    1626 	.db #0x10	; 16
      000418 10                    1627 	.db #0x10	; 16
      000419 10                    1628 	.db #0x10	; 16
      00041A 10                    1629 	.db #0x10	; 16
      00041B 10                    1630 	.db #0x10	; 16
      00041C 18                    1631 	.db #0x18	; 24
      00041D 00                    1632 	.db #0x00	; 0
      00041E 00                    1633 	.db #0x00	; 0
      00041F 00                    1634 	.db #0x00	; 0
      000420 68                    1635 	.db #0x68	; 104	'h'
      000421 54                    1636 	.db #0x54	; 84	'T'
      000422 54                    1637 	.db #0x54	; 84	'T'
      000423 54                    1638 	.db #0x54	; 84	'T'
      000424 54                    1639 	.db #0x54	; 84	'T'
      000425 00                    1640 	.db #0x00	; 0
      000426 00                    1641 	.db #0x00	; 0
      000427 00                    1642 	.db #0x00	; 0
      000428 58                    1643 	.db #0x58	; 88	'X'
      000429 64                    1644 	.db #0x64	; 100	'd'
      00042A 44                    1645 	.db #0x44	; 68	'D'
      00042B 44                    1646 	.db #0x44	; 68	'D'
      00042C 44                    1647 	.db #0x44	; 68	'D'
      00042D 00                    1648 	.db #0x00	; 0
      00042E 00                    1649 	.db #0x00	; 0
      00042F 00                    1650 	.db #0x00	; 0
      000430 38                    1651 	.db #0x38	; 56	'8'
      000431 44                    1652 	.db #0x44	; 68	'D'
      000432 44                    1653 	.db #0x44	; 68	'D'
      000433 44                    1654 	.db #0x44	; 68	'D'
      000434 38                    1655 	.db #0x38	; 56	'8'
      000435 00                    1656 	.db #0x00	; 0
      000436 00                    1657 	.db #0x00	; 0
      000437 00                    1658 	.db #0x00	; 0
      000438 78                    1659 	.db #0x78	; 120	'x'
      000439 44                    1660 	.db #0x44	; 68	'D'
      00043A 44                    1661 	.db #0x44	; 68	'D'
      00043B 78                    1662 	.db #0x78	; 120	'x'
      00043C 40                    1663 	.db #0x40	; 64
      00043D 40                    1664 	.db #0x40	; 64
      00043E 00                    1665 	.db #0x00	; 0
      00043F 00                    1666 	.db #0x00	; 0
      000440 3C                    1667 	.db #0x3c	; 60
      000441 44                    1668 	.db #0x44	; 68	'D'
      000442 44                    1669 	.db #0x44	; 68	'D'
      000443 3C                    1670 	.db #0x3c	; 60
      000444 04                    1671 	.db #0x04	; 4
      000445 04                    1672 	.db #0x04	; 4
      000446 00                    1673 	.db #0x00	; 0
      000447 00                    1674 	.db #0x00	; 0
      000448 58                    1675 	.db #0x58	; 88	'X'
      000449 64                    1676 	.db #0x64	; 100	'd'
      00044A 40                    1677 	.db #0x40	; 64
      00044B 40                    1678 	.db #0x40	; 64
      00044C 40                    1679 	.db #0x40	; 64
      00044D 00                    1680 	.db #0x00	; 0
      00044E 00                    1681 	.db #0x00	; 0
      00044F 00                    1682 	.db #0x00	; 0
      000450 3C                    1683 	.db #0x3c	; 60
      000451 40                    1684 	.db #0x40	; 64
      000452 38                    1685 	.db #0x38	; 56	'8'
      000453 04                    1686 	.db #0x04	; 4
      000454 78                    1687 	.db #0x78	; 120	'x'
      000455 00                    1688 	.db #0x00	; 0
      000456 20                    1689 	.db #0x20	; 32
      000457 20                    1690 	.db #0x20	; 32
      000458 78                    1691 	.db #0x78	; 120	'x'
      000459 20                    1692 	.db #0x20	; 32
      00045A 20                    1693 	.db #0x20	; 32
      00045B 24                    1694 	.db #0x24	; 36
      00045C 18                    1695 	.db #0x18	; 24
      00045D 00                    1696 	.db #0x00	; 0
      00045E 00                    1697 	.db #0x00	; 0
      00045F 00                    1698 	.db #0x00	; 0
      000460 44                    1699 	.db #0x44	; 68	'D'
      000461 44                    1700 	.db #0x44	; 68	'D'
      000462 44                    1701 	.db #0x44	; 68	'D'
      000463 4C                    1702 	.db #0x4c	; 76	'L'
      000464 34                    1703 	.db #0x34	; 52	'4'
      000465 00                    1704 	.db #0x00	; 0
      000466 00                    1705 	.db #0x00	; 0
      000467 00                    1706 	.db #0x00	; 0
      000468 44                    1707 	.db #0x44	; 68	'D'
      000469 44                    1708 	.db #0x44	; 68	'D'
      00046A 44                    1709 	.db #0x44	; 68	'D'
      00046B 28                    1710 	.db #0x28	; 40
      00046C 10                    1711 	.db #0x10	; 16
      00046D 00                    1712 	.db #0x00	; 0
      00046E 00                    1713 	.db #0x00	; 0
      00046F 00                    1714 	.db #0x00	; 0
      000470 44                    1715 	.db #0x44	; 68	'D'
      000471 44                    1716 	.db #0x44	; 68	'D'
      000472 44                    1717 	.db #0x44	; 68	'D'
      000473 54                    1718 	.db #0x54	; 84	'T'
      000474 28                    1719 	.db #0x28	; 40
      000475 00                    1720 	.db #0x00	; 0
      000476 00                    1721 	.db #0x00	; 0
      000477 00                    1722 	.db #0x00	; 0
      000478 44                    1723 	.db #0x44	; 68	'D'
      000479 28                    1724 	.db #0x28	; 40
      00047A 10                    1725 	.db #0x10	; 16
      00047B 28                    1726 	.db #0x28	; 40
      00047C 44                    1727 	.db #0x44	; 68	'D'
      00047D 00                    1728 	.db #0x00	; 0
      00047E 00                    1729 	.db #0x00	; 0
      00047F 00                    1730 	.db #0x00	; 0
      000480 44                    1731 	.db #0x44	; 68	'D'
      000481 44                    1732 	.db #0x44	; 68	'D'
      000482 44                    1733 	.db #0x44	; 68	'D'
      000483 3C                    1734 	.db #0x3c	; 60
      000484 04                    1735 	.db #0x04	; 4
      000485 78                    1736 	.db #0x78	; 120	'x'
      000486 00                    1737 	.db #0x00	; 0
      000487 00                    1738 	.db #0x00	; 0
      000488 7C                    1739 	.db #0x7c	; 124
      000489 08                    1740 	.db #0x08	; 8
      00048A 10                    1741 	.db #0x10	; 16
      00048B 20                    1742 	.db #0x20	; 32
      00048C 7C                    1743 	.db #0x7c	; 124
      00048D 00                    1744 	.db #0x00	; 0
      00048E 18                    1745 	.db #0x18	; 24
      00048F 10                    1746 	.db #0x10	; 16
      000490 10                    1747 	.db #0x10	; 16
      000491 20                    1748 	.db #0x20	; 32
      000492 10                    1749 	.db #0x10	; 16
      000493 10                    1750 	.db #0x10	; 16
      000494 18                    1751 	.db #0x18	; 24
      000495 00                    1752 	.db #0x00	; 0
      000496 10                    1753 	.db #0x10	; 16
      000497 10                    1754 	.db #0x10	; 16
      000498 10                    1755 	.db #0x10	; 16
      000499 10                    1756 	.db #0x10	; 16
      00049A 10                    1757 	.db #0x10	; 16
      00049B 10                    1758 	.db #0x10	; 16
      00049C 10                    1759 	.db #0x10	; 16
      00049D 00                    1760 	.db #0x00	; 0
      00049E 30                    1761 	.db #0x30	; 48	'0'
      00049F 10                    1762 	.db #0x10	; 16
      0004A0 10                    1763 	.db #0x10	; 16
      0004A1 08                    1764 	.db #0x08	; 8
      0004A2 10                    1765 	.db #0x10	; 16
      0004A3 10                    1766 	.db #0x10	; 16
      0004A4 30                    1767 	.db #0x30	; 48	'0'
      0004A5 00                    1768 	.db #0x00	; 0
      0004A6 00                    1769 	.db #0x00	; 0
      0004A7 00                    1770 	.db #0x00	; 0
      0004A8 14                    1771 	.db #0x14	; 20
      0004A9 28                    1772 	.db #0x28	; 40
      0004AA 00                    1773 	.db #0x00	; 0
      0004AB 00                    1774 	.db #0x00	; 0
      0004AC 00                    1775 	.db #0x00	; 0
      0004AD 00                    1776 	.db #0x00	; 0
      0004AE 81                    1777 	.db #0x81	; 129
      0004AF 42                    1778 	.db #0x42	; 66	'B'
      0004B0 24                    1779 	.db #0x24	; 36
      0004B1 18                    1780 	.db #0x18	; 24
      0004B2 18                    1781 	.db #0x18	; 24
      0004B3 24                    1782 	.db #0x24	; 36
      0004B4 42                    1783 	.db #0x42	; 66	'B'
      0004B5 81                    1784 	.db #0x81	; 129
      0004B6 00                    1785 	.db #0x00	; 0
      0004B7 20                    1786 	.db #0x20	; 32
      0004B8 30                    1787 	.db #0x30	; 48	'0'
      0004B9 38                    1788 	.db #0x38	; 56	'8'
      0004BA 30                    1789 	.db #0x30	; 48	'0'
      0004BB 20                    1790 	.db #0x20	; 32
      0004BC 00                    1791 	.db #0x00	; 0
      0004BD 00                    1792 	.db #0x00	; 0
      0004BE 00                    1793 	.db #0x00	; 0
      0004BF 08                    1794 	.db #0x08	; 8
      0004C0 18                    1795 	.db #0x18	; 24
      0004C1 38                    1796 	.db #0x38	; 56	'8'
      0004C2 18                    1797 	.db #0x18	; 24
      0004C3 08                    1798 	.db #0x08	; 8
      0004C4 00                    1799 	.db #0x00	; 0
      0004C5 00                    1800 	.db #0x00	; 0
      0004C6 10                    1801 	.db #0x10	; 16
      0004C7 38                    1802 	.db #0x38	; 56	'8'
      0004C8 7C                    1803 	.db #0x7c	; 124
      0004C9 00                    1804 	.db #0x00	; 0
      0004CA 7C                    1805 	.db #0x7c	; 124
      0004CB 38                    1806 	.db #0x38	; 56	'8'
      0004CC 10                    1807 	.db #0x10	; 16
      0004CD 00                    1808 	.db #0x00	; 0
      0004CE 00                    1809 	.db #0x00	; 0
      0004CF 00                    1810 	.db #0x00	; 0
      0004D0 00                    1811 	.db #0x00	; 0
      0004D1 00                    1812 	.db #0x00	; 0
      0004D2 00                    1813 	.db #0x00	; 0
      0004D3 44                    1814 	.db #0x44	; 68	'D'
      0004D4 7C                    1815 	.db #0x7c	; 124
      0004D5 00                    1816 	.db #0x00	; 0
      0004D6 04                    1817 	.db #0x04	; 4
      0004D7 24                    1818 	.db #0x24	; 36
      0004D8 64                    1819 	.db #0x64	; 100	'd'
      0004D9 FC                    1820 	.db #0xfc	; 252
      0004DA 60                    1821 	.db #0x60	; 96
      0004DB 20                    1822 	.db #0x20	; 32
      0004DC 00                    1823 	.db #0x00	; 0
      0004DD 00                    1824 	.db #0x00	; 0
      0004DE 00                    1825 	.db #0x00	; 0
      0004DF 24                    1826 	.db #0x24	; 36
      0004E0 64                    1827 	.db #0x64	; 100	'd'
      0004E1 FC                    1828 	.db #0xfc	; 252
      0004E2 64                    1829 	.db #0x64	; 100	'd'
      0004E3 24                    1830 	.db #0x24	; 36
      0004E4 00                    1831 	.db #0x00	; 0
      0004E5 00                    1832 	.db #0x00	; 0
      0004E6 10                    1833 	.db #0x10	; 16
      0004E7 38                    1834 	.db #0x38	; 56	'8'
      0004E8 7C                    1835 	.db #0x7c	; 124
      0004E9 10                    1836 	.db #0x10	; 16
      0004EA 10                    1837 	.db #0x10	; 16
      0004EB 7C                    1838 	.db #0x7c	; 124
      0004EC 10                    1839 	.db #0x10	; 16
      0004ED 7C                    1840 	.db #0x7c	; 124
      0004EE 7C                    1841 	.db #0x7c	; 124
      0004EF 10                    1842 	.db #0x10	; 16
      0004F0 7C                    1843 	.db #0x7c	; 124
      0004F1 10                    1844 	.db #0x10	; 16
      0004F2 10                    1845 	.db #0x10	; 16
      0004F3 7C                    1846 	.db #0x7c	; 124
      0004F4 38                    1847 	.db #0x38	; 56	'8'
      0004F5 10                    1848 	.db #0x10	; 16
      0004F6 00                    1849 	.db #0x00	; 0
      0004F7 30                    1850 	.db #0x30	; 48	'0'
      0004F8 78                    1851 	.db #0x78	; 120	'x'
      0004F9 FC                    1852 	.db #0xfc	; 252
      0004FA 30                    1853 	.db #0x30	; 48	'0'
      0004FB 30                    1854 	.db #0x30	; 48	'0'
      0004FC 30                    1855 	.db #0x30	; 48	'0'
      0004FD 00                    1856 	.db #0x00	; 0
      0004FE 00                    1857 	.db #0x00	; 0
      0004FF 30                    1858 	.db #0x30	; 48	'0'
      000500 30                    1859 	.db #0x30	; 48	'0'
      000501 30                    1860 	.db #0x30	; 48	'0'
      000502 FC                    1861 	.db #0xfc	; 252
      000503 78                    1862 	.db #0x78	; 120	'x'
      000504 30                    1863 	.db #0x30	; 48	'0'
      000505 00                    1864 	.db #0x00	; 0
      000506 00                    1865 	.db #0x00	; 0
      000507 10                    1866 	.db #0x10	; 16
      000508 18                    1867 	.db #0x18	; 24
      000509 FC                    1868 	.db #0xfc	; 252
      00050A FC                    1869 	.db #0xfc	; 252
      00050B 18                    1870 	.db #0x18	; 24
      00050C 10                    1871 	.db #0x10	; 16
      00050D 00                    1872 	.db #0x00	; 0
      00050E 00                    1873 	.db #0x00	; 0
      00050F 20                    1874 	.db #0x20	; 32
      000510 60                    1875 	.db #0x60	; 96
      000511 FC                    1876 	.db #0xfc	; 252
      000512 FC                    1877 	.db #0xfc	; 252
      000513 60                    1878 	.db #0x60	; 96
      000514 20                    1879 	.db #0x20	; 32
      000515 00                    1880 	.db #0x00	; 0
      000516 81                    1881 	.db #0x81	; 129
      000517 42                    1882 	.db #0x42	; 66	'B'
      000518 24                    1883 	.db #0x24	; 36
      000519 18                    1884 	.db #0x18	; 24
      00051A 18                    1885 	.db #0x18	; 24
      00051B 24                    1886 	.db #0x24	; 36
      00051C 42                    1887 	.db #0x42	; 66	'B'
      00051D 81                    1888 	.db #0x81	; 129
      00051E 00                    1889 	.db #0x00	; 0
      00051F 00                    1890 	.db #0x00	; 0
      000520 28                    1891 	.db #0x28	; 40
      000521 6C                    1892 	.db #0x6c	; 108	'l'
      000522 6C                    1893 	.db #0x6c	; 108	'l'
      000523 28                    1894 	.db #0x28	; 40
      000524 00                    1895 	.db #0x00	; 0
      000525 00                    1896 	.db #0x00	; 0
      000526 00                    1897 	.db #0x00	; 0
      000527 00                    1898 	.db #0x00	; 0
      000528 10                    1899 	.db #0x10	; 16
      000529 38                    1900 	.db #0x38	; 56	'8'
      00052A 7C                    1901 	.db #0x7c	; 124
      00052B 00                    1902 	.db #0x00	; 0
      00052C 00                    1903 	.db #0x00	; 0
      00052D 00                    1904 	.db #0x00	; 0
      00052E 00                    1905 	.db #0x00	; 0
      00052F 00                    1906 	.db #0x00	; 0
      000530 7C                    1907 	.db #0x7c	; 124
      000531 38                    1908 	.db #0x38	; 56	'8'
      000532 10                    1909 	.db #0x10	; 16
      000533 00                    1910 	.db #0x00	; 0
      000534 00                    1911 	.db #0x00	; 0
      000535 00                    1912 	.db #0x00	; 0
      000536 81                    1913 	.db #0x81	; 129
      000537 42                    1914 	.db #0x42	; 66	'B'
      000538 24                    1915 	.db #0x24	; 36
      000539 18                    1916 	.db #0x18	; 24
      00053A 18                    1917 	.db #0x18	; 24
      00053B 24                    1918 	.db #0x24	; 36
      00053C 42                    1919 	.db #0x42	; 66	'B'
      00053D 81                    1920 	.db #0x81	; 129
      00053E 28                    1921 	.db #0x28	; 40
      00053F 28                    1922 	.db #0x28	; 40
      000540 EF                    1923 	.db #0xef	; 239
      000541 00                    1924 	.db #0x00	; 0
      000542 FF                    1925 	.db #0xff	; 255
      000543 00                    1926 	.db #0x00	; 0
      000544 00                    1927 	.db #0x00	; 0
      000545 00                    1928 	.db #0x00	; 0
      000546 00                    1929 	.db #0x00	; 0
      000547 00                    1930 	.db #0x00	; 0
      000548 FF                    1931 	.db #0xff	; 255
      000549 00                    1932 	.db #0x00	; 0
      00054A EF                    1933 	.db #0xef	; 239
      00054B 28                    1934 	.db #0x28	; 40
      00054C 28                    1935 	.db #0x28	; 40
      00054D 28                    1936 	.db #0x28	; 40
      00054E 28                    1937 	.db #0x28	; 40
      00054F 28                    1938 	.db #0x28	; 40
      000550 E8                    1939 	.db #0xe8	; 232
      000551 08                    1940 	.db #0x08	; 8
      000552 E8                    1941 	.db #0xe8	; 232
      000553 28                    1942 	.db #0x28	; 40
      000554 28                    1943 	.db #0x28	; 40
      000555 28                    1944 	.db #0x28	; 40
      000556 50                    1945 	.db #0x50	; 80	'P'
      000557 50                    1946 	.db #0x50	; 80	'P'
      000558 5F                    1947 	.db #0x5f	; 95
      000559 40                    1948 	.db #0x40	; 64
      00055A 5F                    1949 	.db #0x5f	; 95
      00055B 50                    1950 	.db #0x50	; 80	'P'
      00055C 50                    1951 	.db #0x50	; 80	'P'
      00055D 50                    1952 	.db #0x50	; 80	'P'
      00055E 28                    1953 	.db #0x28	; 40
      00055F 28                    1954 	.db #0x28	; 40
      000560 EF                    1955 	.db #0xef	; 239
      000561 00                    1956 	.db #0x00	; 0
      000562 EF                    1957 	.db #0xef	; 239
      000563 28                    1958 	.db #0x28	; 40
      000564 28                    1959 	.db #0x28	; 40
      000565 28                    1960 	.db #0x28	; 40
      000566 28                    1961 	.db #0x28	; 40
      000567 28                    1962 	.db #0x28	; 40
      000568 28                    1963 	.db #0x28	; 40
      000569 28                    1964 	.db #0x28	; 40
      00056A 28                    1965 	.db #0x28	; 40
      00056B 28                    1966 	.db #0x28	; 40
      00056C 28                    1967 	.db #0x28	; 40
      00056D 28                    1968 	.db #0x28	; 40
      00056E 00                    1969 	.db #0x00	; 0
      00056F 00                    1970 	.db #0x00	; 0
      000570 FF                    1971 	.db #0xff	; 255
      000571 00                    1972 	.db #0x00	; 0
      000572 FF                    1973 	.db #0xff	; 255
      000573 00                    1974 	.db #0x00	; 0
      000574 00                    1975 	.db #0x00	; 0
      000575 00                    1976 	.db #0x00	; 0
      000576 00                    1977 	.db #0x00	; 0
      000577 00                    1978 	.db #0x00	; 0
      000578 3F                    1979 	.db #0x3f	; 63
      000579 20                    1980 	.db #0x20	; 32
      00057A 2F                    1981 	.db #0x2f	; 47
      00057B 28                    1982 	.db #0x28	; 40
      00057C 28                    1983 	.db #0x28	; 40
      00057D 28                    1984 	.db #0x28	; 40
      00057E 00                    1985 	.db #0x00	; 0
      00057F 00                    1986 	.db #0x00	; 0
      000580 F8                    1987 	.db #0xf8	; 248
      000581 08                    1988 	.db #0x08	; 8
      000582 E8                    1989 	.db #0xe8	; 232
      000583 28                    1990 	.db #0x28	; 40
      000584 28                    1991 	.db #0x28	; 40
      000585 28                    1992 	.db #0x28	; 40
      000586 28                    1993 	.db #0x28	; 40
      000587 28                    1994 	.db #0x28	; 40
      000588 2F                    1995 	.db #0x2f	; 47
      000589 20                    1996 	.db #0x20	; 32
      00058A 3F                    1997 	.db #0x3f	; 63
      00058B 00                    1998 	.db #0x00	; 0
      00058C 00                    1999 	.db #0x00	; 0
      00058D 00                    2000 	.db #0x00	; 0
      00058E 28                    2001 	.db #0x28	; 40
      00058F 28                    2002 	.db #0x28	; 40
      000590 E8                    2003 	.db #0xe8	; 232
      000591 08                    2004 	.db #0x08	; 8
      000592 F8                    2005 	.db #0xf8	; 248
      000593 00                    2006 	.db #0x00	; 0
      000594 00                    2007 	.db #0x00	; 0
      000595 00                    2008 	.db #0x00	; 0
      000596 22                    2009 	.db #0x22	; 34
      000597 88                    2010 	.db #0x88	; 136
      000598 22                    2011 	.db #0x22	; 34
      000599 88                    2012 	.db #0x88	; 136
      00059A 22                    2013 	.db #0x22	; 34
      00059B 88                    2014 	.db #0x88	; 136
      00059C 22                    2015 	.db #0x22	; 34
      00059D 88                    2016 	.db #0x88	; 136
      00059E AA                    2017 	.db #0xaa	; 170
      00059F 55                    2018 	.db #0x55	; 85	'U'
      0005A0 AA                    2019 	.db #0xaa	; 170
      0005A1 55                    2020 	.db #0x55	; 85	'U'
      0005A2 AA                    2021 	.db #0xaa	; 170
      0005A3 55                    2022 	.db #0x55	; 85	'U'
      0005A4 AA                    2023 	.db #0xaa	; 170
      0005A5 55                    2024 	.db #0x55	; 85	'U'
      0005A6 EE                    2025 	.db #0xee	; 238
      0005A7 BB                    2026 	.db #0xbb	; 187
      0005A8 EE                    2027 	.db #0xee	; 238
      0005A9 BB                    2028 	.db #0xbb	; 187
      0005AA EE                    2029 	.db #0xee	; 238
      0005AB BB                    2030 	.db #0xbb	; 187
      0005AC EE                    2031 	.db #0xee	; 238
      0005AD BB                    2032 	.db #0xbb	; 187
      0005AE FF                    2033 	.db #0xff	; 255
      0005AF FF                    2034 	.db #0xff	; 255
      0005B0 FF                    2035 	.db #0xff	; 255
      0005B1 FF                    2036 	.db #0xff	; 255
      0005B2 FF                    2037 	.db #0xff	; 255
      0005B3 FF                    2038 	.db #0xff	; 255
      0005B4 FF                    2039 	.db #0xff	; 255
      0005B5 FF                    2040 	.db #0xff	; 255
      0005B6 00                    2041 	.db #0x00	; 0
      0005B7 FF                    2042 	.db #0xff	; 255
      0005B8 FF                    2043 	.db #0xff	; 255
      0005B9 FF                    2044 	.db #0xff	; 255
      0005BA FF                    2045 	.db #0xff	; 255
      0005BB FF                    2046 	.db #0xff	; 255
      0005BC 00                    2047 	.db #0x00	; 0
      0005BD 00                    2048 	.db #0x00	; 0
      0005BE 00                    2049 	.db #0x00	; 0
      0005BF 80                    2050 	.db #0x80	; 128
      0005C0 80                    2051 	.db #0x80	; 128
      0005C1 80                    2052 	.db #0x80	; 128
      0005C2 80                    2053 	.db #0x80	; 128
      0005C3 80                    2054 	.db #0x80	; 128
      0005C4 00                    2055 	.db #0x00	; 0
      0005C5 00                    2056 	.db #0x00	; 0
      0005C6 00                    2057 	.db #0x00	; 0
      0005C7 C0                    2058 	.db #0xc0	; 192
      0005C8 C0                    2059 	.db #0xc0	; 192
      0005C9 C0                    2060 	.db #0xc0	; 192
      0005CA C0                    2061 	.db #0xc0	; 192
      0005CB C0                    2062 	.db #0xc0	; 192
      0005CC 00                    2063 	.db #0x00	; 0
      0005CD 00                    2064 	.db #0x00	; 0
      0005CE 00                    2065 	.db #0x00	; 0
      0005CF E0                    2066 	.db #0xe0	; 224
      0005D0 E0                    2067 	.db #0xe0	; 224
      0005D1 E0                    2068 	.db #0xe0	; 224
      0005D2 E0                    2069 	.db #0xe0	; 224
      0005D3 E0                    2070 	.db #0xe0	; 224
      0005D4 00                    2071 	.db #0x00	; 0
      0005D5 00                    2072 	.db #0x00	; 0
      0005D6 00                    2073 	.db #0x00	; 0
      0005D7 F0                    2074 	.db #0xf0	; 240
      0005D8 F0                    2075 	.db #0xf0	; 240
      0005D9 F0                    2076 	.db #0xf0	; 240
      0005DA F0                    2077 	.db #0xf0	; 240
      0005DB F0                    2078 	.db #0xf0	; 240
      0005DC 00                    2079 	.db #0x00	; 0
      0005DD 00                    2080 	.db #0x00	; 0
      0005DE 00                    2081 	.db #0x00	; 0
      0005DF F8                    2082 	.db #0xf8	; 248
      0005E0 F8                    2083 	.db #0xf8	; 248
      0005E1 F8                    2084 	.db #0xf8	; 248
      0005E2 F8                    2085 	.db #0xf8	; 248
      0005E3 F8                    2086 	.db #0xf8	; 248
      0005E4 00                    2087 	.db #0x00	; 0
      0005E5 00                    2088 	.db #0x00	; 0
      0005E6 00                    2089 	.db #0x00	; 0
      0005E7 FC                    2090 	.db #0xfc	; 252
      0005E8 FC                    2091 	.db #0xfc	; 252
      0005E9 FC                    2092 	.db #0xfc	; 252
      0005EA FC                    2093 	.db #0xfc	; 252
      0005EB FC                    2094 	.db #0xfc	; 252
      0005EC 00                    2095 	.db #0x00	; 0
      0005ED 00                    2096 	.db #0x00	; 0
      0005EE 00                    2097 	.db #0x00	; 0
      0005EF FE                    2098 	.db #0xfe	; 254
      0005F0 FE                    2099 	.db #0xfe	; 254
      0005F1 FE                    2100 	.db #0xfe	; 254
      0005F2 FE                    2101 	.db #0xfe	; 254
      0005F3 FE                    2102 	.db #0xfe	; 254
      0005F4 00                    2103 	.db #0x00	; 0
      0005F5 00                    2104 	.db #0x00	; 0
      0005F6 81                    2105 	.db #0x81	; 129
      0005F7 42                    2106 	.db #0x42	; 66	'B'
      0005F8 24                    2107 	.db #0x24	; 36
      0005F9 18                    2108 	.db #0x18	; 24
      0005FA 18                    2109 	.db #0x18	; 24
      0005FB 24                    2110 	.db #0x24	; 36
      0005FC 42                    2111 	.db #0x42	; 66	'B'
      0005FD 81                    2112 	.db #0x81	; 129
      0005FE 81                    2113 	.db #0x81	; 129
      0005FF 42                    2114 	.db #0x42	; 66	'B'
      000600 24                    2115 	.db #0x24	; 36
      000601 18                    2116 	.db #0x18	; 24
      000602 18                    2117 	.db #0x18	; 24
      000603 24                    2118 	.db #0x24	; 36
      000604 42                    2119 	.db #0x42	; 66	'B'
      000605 81                    2120 	.db #0x81	; 129
      000606 04                    2121 	.db #0x04	; 4
      000607 0C                    2122 	.db #0x0c	; 12
      000608 0C                    2123 	.db #0x0c	; 12
      000609 14                    2124 	.db #0x14	; 20
      00060A 24                    2125 	.db #0x24	; 36
      00060B 24                    2126 	.db #0x24	; 36
      00060C 44                    2127 	.db #0x44	; 68	'D'
      00060D 87                    2128 	.db #0x87	; 135
      00060E 87                    2129 	.db #0x87	; 135
      00060F 44                    2130 	.db #0x44	; 68	'D'
      000610 24                    2131 	.db #0x24	; 36
      000611 24                    2132 	.db #0x24	; 36
      000612 14                    2133 	.db #0x14	; 20
      000613 0C                    2134 	.db #0x0c	; 12
      000614 0C                    2135 	.db #0x0c	; 12
      000615 04                    2136 	.db #0x04	; 4
      000616 00                    2137 	.db #0x00	; 0
      000617 00                    2138 	.db #0x00	; 0
      000618 00                    2139 	.db #0x00	; 0
      000619 00                    2140 	.db #0x00	; 0
      00061A 00                    2141 	.db #0x00	; 0
      00061B 00                    2142 	.db #0x00	; 0
      00061C 00                    2143 	.db #0x00	; 0
      00061D FF                    2144 	.db #0xff	; 255
      00061E FF                    2145 	.db #0xff	; 255
      00061F 00                    2146 	.db #0x00	; 0
      000620 00                    2147 	.db #0x00	; 0
      000621 00                    2148 	.db #0x00	; 0
      000622 00                    2149 	.db #0x00	; 0
      000623 00                    2150 	.db #0x00	; 0
      000624 00                    2151 	.db #0x00	; 0
      000625 00                    2152 	.db #0x00	; 0
      000626 80                    2153 	.db #0x80	; 128
      000627 80                    2154 	.db #0x80	; 128
      000628 80                    2155 	.db #0x80	; 128
      000629 80                    2156 	.db #0x80	; 128
      00062A 80                    2157 	.db #0x80	; 128
      00062B 80                    2158 	.db #0x80	; 128
      00062C 80                    2159 	.db #0x80	; 128
      00062D 80                    2160 	.db #0x80	; 128
      00062E 07                    2161 	.db #0x07	; 7
      00062F 07                    2162 	.db #0x07	; 7
      000630 07                    2163 	.db #0x07	; 7
      000631 07                    2164 	.db #0x07	; 7
      000632 07                    2165 	.db #0x07	; 7
      000633 07                    2166 	.db #0x07	; 7
      000634 07                    2167 	.db #0x07	; 7
      000635 07                    2168 	.db #0x07	; 7
      000636 00                    2169 	.db #0x00	; 0
      000637 70                    2170 	.db #0x70	; 112	'p'
      000638 D8                    2171 	.db #0xd8	; 216
      000639 88                    2172 	.db #0x88	; 136
      00063A D8                    2173 	.db #0xd8	; 216
      00063B 50                    2174 	.db #0x50	; 80	'P'
      00063C 00                    2175 	.db #0x00	; 0
      00063D 00                    2176 	.db #0x00	; 0
      00063E 00                    2177 	.db #0x00	; 0
      00063F 70                    2178 	.db #0x70	; 112	'p'
      000640 D8                    2179 	.db #0xd8	; 216
      000641 88                    2180 	.db #0x88	; 136
      000642 98                    2181 	.db #0x98	; 152
      000643 70                    2182 	.db #0x70	; 112	'p'
      000644 00                    2183 	.db #0x00	; 0
      000645 00                    2184 	.db #0x00	; 0
      000646 00                    2185 	.db #0x00	; 0
      000647 70                    2186 	.db #0x70	; 112	'p'
      000648 D8                    2187 	.db #0xd8	; 216
      000649 08                    2188 	.db #0x08	; 8
      00064A D8                    2189 	.db #0xd8	; 216
      00064B 70                    2190 	.db #0x70	; 112	'p'
      00064C 00                    2191 	.db #0x00	; 0
      00064D 00                    2192 	.db #0x00	; 0
      00064E 00                    2193 	.db #0x00	; 0
      00064F 70                    2194 	.db #0x70	; 112	'p'
      000650 98                    2195 	.db #0x98	; 152
      000651 88                    2196 	.db #0x88	; 136
      000652 D8                    2197 	.db #0xd8	; 216
      000653 70                    2198 	.db #0x70	; 112	'p'
      000654 00                    2199 	.db #0x00	; 0
      000655 00                    2200 	.db #0x00	; 0
      000656 00                    2201 	.db #0x00	; 0
      000657 50                    2202 	.db #0x50	; 80	'P'
      000658 D8                    2203 	.db #0xd8	; 216
      000659 88                    2204 	.db #0x88	; 136
      00065A D8                    2205 	.db #0xd8	; 216
      00065B 70                    2206 	.db #0x70	; 112	'p'
      00065C 00                    2207 	.db #0x00	; 0
      00065D 00                    2208 	.db #0x00	; 0
      00065E 00                    2209 	.db #0x00	; 0
      00065F 70                    2210 	.db #0x70	; 112	'p'
      000660 C8                    2211 	.db #0xc8	; 200
      000661 88                    2212 	.db #0x88	; 136
      000662 D8                    2213 	.db #0xd8	; 216
      000663 70                    2214 	.db #0x70	; 112	'p'
      000664 00                    2215 	.db #0x00	; 0
      000665 00                    2216 	.db #0x00	; 0
      000666 00                    2217 	.db #0x00	; 0
      000667 70                    2218 	.db #0x70	; 112	'p'
      000668 D8                    2219 	.db #0xd8	; 216
      000669 80                    2220 	.db #0x80	; 128
      00066A D8                    2221 	.db #0xd8	; 216
      00066B 70                    2222 	.db #0x70	; 112	'p'
      00066C 00                    2223 	.db #0x00	; 0
      00066D 00                    2224 	.db #0x00	; 0
      00066E 00                    2225 	.db #0x00	; 0
      00066F 70                    2226 	.db #0x70	; 112	'p'
      000670 D8                    2227 	.db #0xd8	; 216
      000671 88                    2228 	.db #0x88	; 136
      000672 C8                    2229 	.db #0xc8	; 200
      000673 70                    2230 	.db #0x70	; 112	'p'
      000674 00                    2231 	.db #0x00	; 0
      000675 00                    2232 	.db #0x00	; 0
      000676 00                    2233 	.db #0x00	; 0
      000677 D8                    2234 	.db #0xd8	; 216
      000678 D8                    2235 	.db #0xd8	; 216
      000679 D8                    2236 	.db #0xd8	; 216
      00067A D8                    2237 	.db #0xd8	; 216
      00067B D8                    2238 	.db #0xd8	; 216
      00067C 00                    2239 	.db #0x00	; 0
      00067D 00                    2240 	.db #0x00	; 0
      00067E 00                    2241 	.db #0x00	; 0
      00067F F8                    2242 	.db #0xf8	; 248
      000680 F8                    2243 	.db #0xf8	; 248
      000681 F8                    2244 	.db #0xf8	; 248
      000682 F8                    2245 	.db #0xf8	; 248
      000683 F8                    2246 	.db #0xf8	; 248
      000684 00                    2247 	.db #0x00	; 0
      000685 00                    2248 	.db #0x00	; 0
      000686 00                    2249 	.db #0x00	; 0
      000687 88                    2250 	.db #0x88	; 136
      000688 C8                    2251 	.db #0xc8	; 200
      000689 E8                    2252 	.db #0xe8	; 232
      00068A C8                    2253 	.db #0xc8	; 200
      00068B 88                    2254 	.db #0x88	; 136
      00068C 00                    2255 	.db #0x00	; 0
      00068D 00                    2256 	.db #0x00	; 0
      00068E 00                    2257 	.db #0x00	; 0
      00068F 88                    2258 	.db #0x88	; 136
      000690 98                    2259 	.db #0x98	; 152
      000691 B8                    2260 	.db #0xb8	; 184
      000692 98                    2261 	.db #0x98	; 152
      000693 88                    2262 	.db #0x88	; 136
      000694 00                    2263 	.db #0x00	; 0
      000695 00                    2264 	.db #0x00	; 0
      000696 00                    2265 	.db #0x00	; 0
      000697 90                    2266 	.db #0x90	; 144
      000698 D8                    2267 	.db #0xd8	; 216
      000699 FC                    2268 	.db #0xfc	; 252
      00069A D8                    2269 	.db #0xd8	; 216
      00069B 90                    2270 	.db #0x90	; 144
      00069C 00                    2271 	.db #0x00	; 0
      00069D 00                    2272 	.db #0x00	; 0
      00069E 00                    2273 	.db #0x00	; 0
      00069F 24                    2274 	.db #0x24	; 36
      0006A0 6C                    2275 	.db #0x6c	; 108	'l'
      0006A1 FC                    2276 	.db #0xfc	; 252
      0006A2 6C                    2277 	.db #0x6c	; 108	'l'
      0006A3 24                    2278 	.db #0x24	; 36
      0006A4 00                    2279 	.db #0x00	; 0
      0006A5 00                    2280 	.db #0x00	; 0
      0006A6 08                    2281 	.db #0x08	; 8
      0006A7 7C                    2282 	.db #0x7c	; 124
      0006A8 88                    2283 	.db #0x88	; 136
      0006A9 00                    2284 	.db #0x00	; 0
      0006AA 44                    2285 	.db #0x44	; 68	'D'
      0006AB F8                    2286 	.db #0xf8	; 248
      0006AC 40                    2287 	.db #0x40	; 64
      0006AD 00                    2288 	.db #0x00	; 0
      0006AE 00                    2289 	.db #0x00	; 0
      0006AF 4C                    2290 	.db #0x4c	; 76	'L'
      0006B0 A0                    2291 	.db #0xa0	; 160
      0006B1 20                    2292 	.db #0x20	; 32
      0006B2 28                    2293 	.db #0x28	; 40
      0006B3 9C                    2294 	.db #0x9c	; 156
      0006B4 08                    2295 	.db #0x08	; 8
      0006B5 00                    2296 	.db #0x00	; 0
                                   2297 ;./mandoroids.c:109: void GetRandomColumn() {
                                   2298 ;	---------------------------------
                                   2299 ; Function GetRandomColumn
                                   2300 ; ---------------------------------
      0006B6                       2301 _GetRandomColumn::
                                   2302 ;./mandoroids.c:113: new_column_buffer[0] = 0;
      0006B6 21rEAr02         [10] 2303 	ld	hl, #_new_column_buffer
      0006B9 36 00            [10] 2304 	ld	(hl), #0x00
                                   2305 ;./mandoroids.c:114: new_column_buffer[1] = 0;
      0006BB 21rEBr02         [10] 2306 	ld	hl, #(_new_column_buffer + 1)
      0006BE 36 00            [10] 2307 	ld	(hl), #0x00
                                   2308 ;./mandoroids.c:115: new_column_buffer[2] = 0;
      0006C0 21rECr02         [10] 2309 	ld	hl, #(_new_column_buffer + 2)
      0006C3 36 00            [10] 2310 	ld	(hl), #0x00
                                   2311 ;C:/MSXgl-main/MSXgl-main/engine/src/math.h:264: inline u8 Math_GetRandomRange8(u8 min, u8 max) { return min + Math_GetRandom8() % (max - min); }
      0006C5 CDr00r00         [17] 2312 	call	_Math_GetRandom8
      0006C8 6F               [ 4] 2313 	ld	l, a
                                   2314 ;	spillPairReg hl
                                   2315 ;	spillPairReg hl
      0006C9 26 00            [ 7] 2316 	ld	h, #0x00
                                   2317 ;	spillPairReg hl
                                   2318 ;	spillPairReg hl
      0006CB 11 65 00         [10] 2319 	ld	de, #0x0065
      0006CE CDr00r00         [17] 2320 	call	__modsint
                                   2321 ;./mandoroids.c:118: if (chnc<=asteroid_chance) {
      0006D1 3Ar0Er00         [13] 2322 	ld	a, (#_asteroid_chance)
      0006D4 93               [ 4] 2323 	sub	a, e
      0006D5 38 10            [12] 2324 	jr	C, 00102$
                                   2325 ;./mandoroids.c:119: new_column_buffer[0] = asteroid_arrangements[Math_GetRandomRange8(0,8)];
                                   2326 ;C:/MSXgl-main/MSXgl-main/engine/src/math.h:264: inline u8 Math_GetRandomRange8(u8 min, u8 max) { return min + Math_GetRandom8() % (max - min); }
      0006D7 CDr00r00         [17] 2327 	call	_Math_GetRandom8
      0006DA E6 07            [ 7] 2328 	and	a, #0x07
      0006DC 4F               [ 4] 2329 	ld	c, a
                                   2330 ;./mandoroids.c:119: new_column_buffer[0] = asteroid_arrangements[Math_GetRandomRange8(0,8)];
      0006DD 21r02r00         [10] 2331 	ld	hl, #_asteroid_arrangements
      0006E0 06 00            [ 7] 2332 	ld	b, #0x00
      0006E2 09               [11] 2333 	add	hl, bc
      0006E3 7E               [ 7] 2334 	ld	a, (hl)
      0006E4 32rEAr02         [13] 2335 	ld	(#_new_column_buffer),a
      0006E7                       2336 00102$:
                                   2337 ;C:/MSXgl-main/MSXgl-main/engine/src/math.h:264: inline u8 Math_GetRandomRange8(u8 min, u8 max) { return min + Math_GetRandom8() % (max - min); }
      0006E7 CDr00r00         [17] 2338 	call	_Math_GetRandom8
      0006EA 6F               [ 4] 2339 	ld	l, a
                                   2340 ;	spillPairReg hl
                                   2341 ;	spillPairReg hl
      0006EB 26 00            [ 7] 2342 	ld	h, #0x00
                                   2343 ;	spillPairReg hl
                                   2344 ;	spillPairReg hl
      0006ED 11 65 00         [10] 2345 	ld	de, #0x0065
      0006F0 CDr00r00         [17] 2346 	call	__modsint
                                   2347 ;./mandoroids.c:122: if (chnc<=asteroid_chance) {
      0006F3 3Ar0Er00         [13] 2348 	ld	a, (#_asteroid_chance)
      0006F6 93               [ 4] 2349 	sub	a, e
      0006F7 38 10            [12] 2350 	jr	C, 00104$
                                   2351 ;./mandoroids.c:123: new_column_buffer[1] = asteroid_arrangements[Math_GetRandomRange8(0,8)];
                                   2352 ;C:/MSXgl-main/MSXgl-main/engine/src/math.h:264: inline u8 Math_GetRandomRange8(u8 min, u8 max) { return min + Math_GetRandom8() % (max - min); }
      0006F9 CDr00r00         [17] 2353 	call	_Math_GetRandom8
      0006FC E6 07            [ 7] 2354 	and	a, #0x07
      0006FE 4F               [ 4] 2355 	ld	c, a
                                   2356 ;./mandoroids.c:123: new_column_buffer[1] = asteroid_arrangements[Math_GetRandomRange8(0,8)];
      0006FF 21r02r00         [10] 2357 	ld	hl, #_asteroid_arrangements
      000702 06 00            [ 7] 2358 	ld	b, #0x00
      000704 09               [11] 2359 	add	hl, bc
      000705 7E               [ 7] 2360 	ld	a, (hl)
      000706 32rEBr02         [13] 2361 	ld	(#(_new_column_buffer + 1)),a
      000709                       2362 00104$:
                                   2363 ;C:/MSXgl-main/MSXgl-main/engine/src/math.h:264: inline u8 Math_GetRandomRange8(u8 min, u8 max) { return min + Math_GetRandom8() % (max - min); }
      000709 CDr00r00         [17] 2364 	call	_Math_GetRandom8
      00070C 6F               [ 4] 2365 	ld	l, a
                                   2366 ;	spillPairReg hl
                                   2367 ;	spillPairReg hl
      00070D 26 00            [ 7] 2368 	ld	h, #0x00
                                   2369 ;	spillPairReg hl
                                   2370 ;	spillPairReg hl
      00070F 11 65 00         [10] 2371 	ld	de, #0x0065
      000712 CDr00r00         [17] 2372 	call	__modsint
                                   2373 ;./mandoroids.c:126: if (chnc<=asteroid_chance) {
      000715 3Ar0Er00         [13] 2374 	ld	a, (#_asteroid_chance)
      000718 93               [ 4] 2375 	sub	a, e
      000719 D8               [11] 2376 	ret	C
                                   2377 ;./mandoroids.c:127: new_column_buffer[2] = asteroid_arrangements[Math_GetRandomRange8(0,8)];
                                   2378 ;C:/MSXgl-main/MSXgl-main/engine/src/math.h:264: inline u8 Math_GetRandomRange8(u8 min, u8 max) { return min + Math_GetRandom8() % (max - min); }
      00071A CDr00r00         [17] 2379 	call	_Math_GetRandom8
      00071D E6 07            [ 7] 2380 	and	a, #0x07
      00071F 4F               [ 4] 2381 	ld	c, a
                                   2382 ;./mandoroids.c:127: new_column_buffer[2] = asteroid_arrangements[Math_GetRandomRange8(0,8)];
      000720 21r02r00         [10] 2383 	ld	hl, #_asteroid_arrangements
      000723 06 00            [ 7] 2384 	ld	b, #0x00
      000725 09               [11] 2385 	add	hl, bc
      000726 7E               [ 7] 2386 	ld	a, (hl)
      000727 32rECr02         [13] 2387 	ld	(#(_new_column_buffer + 2)),a
                                   2388 ;./mandoroids.c:129: }
      00072A C9               [10] 2389 	ret
                                   2390 ;./mandoroids.c:131: void CreateColumn(char x) {
                                   2391 ;	---------------------------------
                                   2392 ; Function CreateColumn
                                   2393 ; ---------------------------------
      00072B                       2394 _CreateColumn::
      00072B 4F               [ 4] 2395 	ld	c, a
                                   2396 ;./mandoroids.c:133: SetTileAtXY(x,0,new_column_buffer[0] & 1 << 1);
      00072C 06 00            [ 7] 2397 	ld	b, #0x00
      00072E 2Ar00r00         [16] 2398 	ld	hl, (_g_ScreenLayoutLow)
      000731 09               [11] 2399 	add	hl, bc
      000732 EB               [ 4] 2400 	ex	de, hl
      000733 3ArEAr02         [13] 2401 	ld	a, (#_new_column_buffer + 0)
      000736 E6 02            [ 7] 2402 	and	a, #0x02
      000738 6F               [ 4] 2403 	ld	l, a
                                   2404 ;	spillPairReg hl
                                   2405 ;	spillPairReg hl
      000739 C5               [11] 2406 	push	bc
      00073A 01 01 00         [10] 2407 	ld	bc, #0x0001
      00073D C5               [11] 2408 	push	bc
      00073E 7D               [ 4] 2409 	ld	a, l
      00073F CDr00r00         [17] 2410 	call	_VDP_FillVRAM_16K
      000742 C1               [10] 2411 	pop	bc
                                   2412 ;./mandoroids.c:134: SetTileAtXY(x,1,new_column_buffer[0]>>1 & 1 << 1);
      000743 2Ar00r00         [16] 2413 	ld	hl, (_g_ScreenLayoutLow)
      000746 09               [11] 2414 	add	hl, bc
      000747 11 20 00         [10] 2415 	ld	de, #0x0020
      00074A 19               [11] 2416 	add	hl, de
      00074B EB               [ 4] 2417 	ex	de, hl
      00074C 3ArEAr02         [13] 2418 	ld	a, (#_new_column_buffer + 0)
      00074F CB 3F            [ 8] 2419 	srl	a
      000751 E6 02            [ 7] 2420 	and	a, #0x02
      000753 6F               [ 4] 2421 	ld	l, a
                                   2422 ;	spillPairReg hl
                                   2423 ;	spillPairReg hl
      000754 C5               [11] 2424 	push	bc
      000755 01 01 00         [10] 2425 	ld	bc, #0x0001
      000758 C5               [11] 2426 	push	bc
      000759 7D               [ 4] 2427 	ld	a, l
      00075A CDr00r00         [17] 2428 	call	_VDP_FillVRAM_16K
      00075D C1               [10] 2429 	pop	bc
                                   2430 ;./mandoroids.c:135: SetTileAtXY(x,2,new_column_buffer[0]>>2 & 1 << 1);
      00075E 2Ar00r00         [16] 2431 	ld	hl, (_g_ScreenLayoutLow)
      000761 09               [11] 2432 	add	hl, bc
      000762 11 40 00         [10] 2433 	ld	de, #0x0040
      000765 19               [11] 2434 	add	hl, de
      000766 EB               [ 4] 2435 	ex	de, hl
      000767 3ArEAr02         [13] 2436 	ld	a, (#_new_column_buffer + 0)
      00076A 0F               [ 4] 2437 	rrca
      00076B 0F               [ 4] 2438 	rrca
      00076C E6 02            [ 7] 2439 	and	a, #0x2
      00076E 6F               [ 4] 2440 	ld	l, a
                                   2441 ;	spillPairReg hl
                                   2442 ;	spillPairReg hl
      00076F C5               [11] 2443 	push	bc
      000770 01 01 00         [10] 2444 	ld	bc, #0x0001
      000773 C5               [11] 2445 	push	bc
      000774 7D               [ 4] 2446 	ld	a, l
      000775 CDr00r00         [17] 2447 	call	_VDP_FillVRAM_16K
      000778 C1               [10] 2448 	pop	bc
                                   2449 ;./mandoroids.c:136: SetTileAtXY(x,3,new_column_buffer[0]>>3 & 1 << 1);
      000779 2Ar00r00         [16] 2450 	ld	hl, (_g_ScreenLayoutLow)
      00077C 09               [11] 2451 	add	hl, bc
      00077D 11 60 00         [10] 2452 	ld	de, #0x0060
      000780 19               [11] 2453 	add	hl, de
      000781 EB               [ 4] 2454 	ex	de, hl
      000782 3ArEAr02         [13] 2455 	ld	a, (#_new_column_buffer + 0)
      000785 0F               [ 4] 2456 	rrca
      000786 0F               [ 4] 2457 	rrca
      000787 0F               [ 4] 2458 	rrca
      000788 E6 02            [ 7] 2459 	and	a, #0x2
      00078A 6F               [ 4] 2460 	ld	l, a
                                   2461 ;	spillPairReg hl
                                   2462 ;	spillPairReg hl
      00078B C5               [11] 2463 	push	bc
      00078C 01 01 00         [10] 2464 	ld	bc, #0x0001
      00078F C5               [11] 2465 	push	bc
      000790 7D               [ 4] 2466 	ld	a, l
      000791 CDr00r00         [17] 2467 	call	_VDP_FillVRAM_16K
      000794 C1               [10] 2468 	pop	bc
                                   2469 ;./mandoroids.c:137: SetTileAtXY(x,4,new_column_buffer[0]>>4 & 1 << 1);
      000795 2Ar00r00         [16] 2470 	ld	hl, (_g_ScreenLayoutLow)
      000798 09               [11] 2471 	add	hl, bc
      000799 11 80 00         [10] 2472 	ld	de, #0x0080
      00079C 19               [11] 2473 	add	hl, de
      00079D EB               [ 4] 2474 	ex	de, hl
      00079E 3ArEAr02         [13] 2475 	ld	a, (#_new_column_buffer + 0)
      0007A1 07               [ 4] 2476 	rlca
      0007A2 07               [ 4] 2477 	rlca
      0007A3 07               [ 4] 2478 	rlca
      0007A4 07               [ 4] 2479 	rlca
      0007A5 E6 02            [ 7] 2480 	and	a, #0x2
      0007A7 6F               [ 4] 2481 	ld	l, a
                                   2482 ;	spillPairReg hl
                                   2483 ;	spillPairReg hl
      0007A8 C5               [11] 2484 	push	bc
      0007A9 01 01 00         [10] 2485 	ld	bc, #0x0001
      0007AC C5               [11] 2486 	push	bc
      0007AD 7D               [ 4] 2487 	ld	a, l
      0007AE CDr00r00         [17] 2488 	call	_VDP_FillVRAM_16K
      0007B1 C1               [10] 2489 	pop	bc
                                   2490 ;./mandoroids.c:138: SetTileAtXY(x,5,new_column_buffer[0]>>5 & 1 << 1);
      0007B2 2Ar00r00         [16] 2491 	ld	hl, (_g_ScreenLayoutLow)
      0007B5 09               [11] 2492 	add	hl, bc
      0007B6 11 A0 00         [10] 2493 	ld	de, #0x00a0
      0007B9 19               [11] 2494 	add	hl, de
      0007BA EB               [ 4] 2495 	ex	de, hl
      0007BB 3ArEAr02         [13] 2496 	ld	a, (#_new_column_buffer + 0)
      0007BE 07               [ 4] 2497 	rlca
      0007BF 07               [ 4] 2498 	rlca
      0007C0 07               [ 4] 2499 	rlca
      0007C1 E6 02            [ 7] 2500 	and	a, #0x2
      0007C3 6F               [ 4] 2501 	ld	l, a
                                   2502 ;	spillPairReg hl
                                   2503 ;	spillPairReg hl
      0007C4 C5               [11] 2504 	push	bc
      0007C5 01 01 00         [10] 2505 	ld	bc, #0x0001
      0007C8 C5               [11] 2506 	push	bc
      0007C9 7D               [ 4] 2507 	ld	a, l
      0007CA CDr00r00         [17] 2508 	call	_VDP_FillVRAM_16K
      0007CD C1               [10] 2509 	pop	bc
                                   2510 ;./mandoroids.c:139: SetTileAtXY(x,6,new_column_buffer[0]>>6 & 1 << 1);
      0007CE 2Ar00r00         [16] 2511 	ld	hl, (_g_ScreenLayoutLow)
      0007D1 09               [11] 2512 	add	hl, bc
      0007D2 11 C0 00         [10] 2513 	ld	de, #0x00c0
      0007D5 19               [11] 2514 	add	hl, de
      0007D6 EB               [ 4] 2515 	ex	de, hl
      0007D7 3ArEAr02         [13] 2516 	ld	a, (#_new_column_buffer + 0)
      0007DA 07               [ 4] 2517 	rlca
      0007DB 07               [ 4] 2518 	rlca
      0007DC E6 02            [ 7] 2519 	and	a, #0x2
      0007DE 6F               [ 4] 2520 	ld	l, a
                                   2521 ;	spillPairReg hl
                                   2522 ;	spillPairReg hl
      0007DF C5               [11] 2523 	push	bc
      0007E0 01 01 00         [10] 2524 	ld	bc, #0x0001
      0007E3 C5               [11] 2525 	push	bc
      0007E4 7D               [ 4] 2526 	ld	a, l
      0007E5 CDr00r00         [17] 2527 	call	_VDP_FillVRAM_16K
      0007E8 C1               [10] 2528 	pop	bc
                                   2529 ;./mandoroids.c:140: SetTileAtXY(x,7,new_column_buffer[0]>>7 & 1 << 1);
      0007E9 2Ar00r00         [16] 2530 	ld	hl, (_g_ScreenLayoutLow)
      0007EC 09               [11] 2531 	add	hl, bc
      0007ED 11 E0 00         [10] 2532 	ld	de, #0x00e0
      0007F0 19               [11] 2533 	add	hl, de
      0007F1 EB               [ 4] 2534 	ex	de, hl
      0007F2 3ArEAr02         [13] 2535 	ld	a, (#_new_column_buffer + 0)
      0007F5 07               [ 4] 2536 	rlca
      0007F6 E6 00            [ 7] 2537 	and	a, #0x0
      0007F8 6F               [ 4] 2538 	ld	l, a
                                   2539 ;	spillPairReg hl
                                   2540 ;	spillPairReg hl
      0007F9 C5               [11] 2541 	push	bc
      0007FA 01 01 00         [10] 2542 	ld	bc, #0x0001
      0007FD C5               [11] 2543 	push	bc
      0007FE 7D               [ 4] 2544 	ld	a, l
      0007FF CDr00r00         [17] 2545 	call	_VDP_FillVRAM_16K
      000802 C1               [10] 2546 	pop	bc
                                   2547 ;./mandoroids.c:142: SetTileAtXY(x,8,new_column_buffer[1] & 1 << 1);
      000803 2Ar00r00         [16] 2548 	ld	hl, (_g_ScreenLayoutLow)
      000806 09               [11] 2549 	add	hl, bc
      000807 5D               [ 4] 2550 	ld	e, l
      000808 7C               [ 4] 2551 	ld	a, h
      000809 3C               [ 4] 2552 	inc	a
      00080A 57               [ 4] 2553 	ld	d, a
      00080B 3ArEBr02         [13] 2554 	ld	a, (#(_new_column_buffer + 1) + 0)
      00080E E6 02            [ 7] 2555 	and	a, #0x02
      000810 6F               [ 4] 2556 	ld	l, a
                                   2557 ;	spillPairReg hl
                                   2558 ;	spillPairReg hl
      000811 C5               [11] 2559 	push	bc
      000812 01 01 00         [10] 2560 	ld	bc, #0x0001
      000815 C5               [11] 2561 	push	bc
      000816 7D               [ 4] 2562 	ld	a, l
      000817 CDr00r00         [17] 2563 	call	_VDP_FillVRAM_16K
      00081A C1               [10] 2564 	pop	bc
                                   2565 ;./mandoroids.c:143: SetTileAtXY(x,9,new_column_buffer[1]>>1 & 1 << 1);
      00081B 2Ar00r00         [16] 2566 	ld	hl, (_g_ScreenLayoutLow)
      00081E 09               [11] 2567 	add	hl, bc
      00081F 11 20 01         [10] 2568 	ld	de, #0x0120
      000822 19               [11] 2569 	add	hl, de
      000823 EB               [ 4] 2570 	ex	de, hl
      000824 3ArEBr02         [13] 2571 	ld	a, (#(_new_column_buffer + 1) + 0)
      000827 CB 3F            [ 8] 2572 	srl	a
      000829 E6 02            [ 7] 2573 	and	a, #0x02
      00082B 6F               [ 4] 2574 	ld	l, a
                                   2575 ;	spillPairReg hl
                                   2576 ;	spillPairReg hl
      00082C C5               [11] 2577 	push	bc
      00082D 01 01 00         [10] 2578 	ld	bc, #0x0001
      000830 C5               [11] 2579 	push	bc
      000831 7D               [ 4] 2580 	ld	a, l
      000832 CDr00r00         [17] 2581 	call	_VDP_FillVRAM_16K
      000835 C1               [10] 2582 	pop	bc
                                   2583 ;./mandoroids.c:144: SetTileAtXY(x,10,new_column_buffer[1]>>2 & 1 << 1);
      000836 2Ar00r00         [16] 2584 	ld	hl, (_g_ScreenLayoutLow)
      000839 09               [11] 2585 	add	hl, bc
      00083A 11 40 01         [10] 2586 	ld	de, #0x0140
      00083D 19               [11] 2587 	add	hl, de
      00083E EB               [ 4] 2588 	ex	de, hl
      00083F 3ArEBr02         [13] 2589 	ld	a, (#(_new_column_buffer + 1) + 0)
      000842 0F               [ 4] 2590 	rrca
      000843 0F               [ 4] 2591 	rrca
      000844 E6 02            [ 7] 2592 	and	a, #0x2
      000846 6F               [ 4] 2593 	ld	l, a
                                   2594 ;	spillPairReg hl
                                   2595 ;	spillPairReg hl
      000847 C5               [11] 2596 	push	bc
      000848 01 01 00         [10] 2597 	ld	bc, #0x0001
      00084B C5               [11] 2598 	push	bc
      00084C 7D               [ 4] 2599 	ld	a, l
      00084D CDr00r00         [17] 2600 	call	_VDP_FillVRAM_16K
      000850 C1               [10] 2601 	pop	bc
                                   2602 ;./mandoroids.c:145: SetTileAtXY(x,11,new_column_buffer[1]>>3 & 1 << 1);
      000851 2Ar00r00         [16] 2603 	ld	hl, (_g_ScreenLayoutLow)
      000854 09               [11] 2604 	add	hl, bc
      000855 11 60 01         [10] 2605 	ld	de, #0x0160
      000858 19               [11] 2606 	add	hl, de
      000859 EB               [ 4] 2607 	ex	de, hl
      00085A 3ArEBr02         [13] 2608 	ld	a, (#(_new_column_buffer + 1) + 0)
      00085D 0F               [ 4] 2609 	rrca
      00085E 0F               [ 4] 2610 	rrca
      00085F 0F               [ 4] 2611 	rrca
      000860 E6 02            [ 7] 2612 	and	a, #0x2
      000862 6F               [ 4] 2613 	ld	l, a
                                   2614 ;	spillPairReg hl
                                   2615 ;	spillPairReg hl
      000863 C5               [11] 2616 	push	bc
      000864 01 01 00         [10] 2617 	ld	bc, #0x0001
      000867 C5               [11] 2618 	push	bc
      000868 7D               [ 4] 2619 	ld	a, l
      000869 CDr00r00         [17] 2620 	call	_VDP_FillVRAM_16K
      00086C C1               [10] 2621 	pop	bc
                                   2622 ;./mandoroids.c:146: SetTileAtXY(x,12,new_column_buffer[1]>>4 & 1 << 1);
      00086D 2Ar00r00         [16] 2623 	ld	hl, (_g_ScreenLayoutLow)
      000870 09               [11] 2624 	add	hl, bc
      000871 11 80 01         [10] 2625 	ld	de, #0x0180
      000874 19               [11] 2626 	add	hl, de
      000875 EB               [ 4] 2627 	ex	de, hl
      000876 3ArEBr02         [13] 2628 	ld	a, (#(_new_column_buffer + 1) + 0)
      000879 07               [ 4] 2629 	rlca
      00087A 07               [ 4] 2630 	rlca
      00087B 07               [ 4] 2631 	rlca
      00087C 07               [ 4] 2632 	rlca
      00087D E6 02            [ 7] 2633 	and	a, #0x2
      00087F 6F               [ 4] 2634 	ld	l, a
                                   2635 ;	spillPairReg hl
                                   2636 ;	spillPairReg hl
      000880 C5               [11] 2637 	push	bc
      000881 01 01 00         [10] 2638 	ld	bc, #0x0001
      000884 C5               [11] 2639 	push	bc
      000885 7D               [ 4] 2640 	ld	a, l
      000886 CDr00r00         [17] 2641 	call	_VDP_FillVRAM_16K
      000889 C1               [10] 2642 	pop	bc
                                   2643 ;./mandoroids.c:147: SetTileAtXY(x,13,new_column_buffer[1]>>5 & 1 << 1);
      00088A 2Ar00r00         [16] 2644 	ld	hl, (_g_ScreenLayoutLow)
      00088D 09               [11] 2645 	add	hl, bc
      00088E 11 A0 01         [10] 2646 	ld	de, #0x01a0
      000891 19               [11] 2647 	add	hl, de
      000892 EB               [ 4] 2648 	ex	de, hl
      000893 3ArEBr02         [13] 2649 	ld	a, (#(_new_column_buffer + 1) + 0)
      000896 07               [ 4] 2650 	rlca
      000897 07               [ 4] 2651 	rlca
      000898 07               [ 4] 2652 	rlca
      000899 E6 02            [ 7] 2653 	and	a, #0x2
      00089B 6F               [ 4] 2654 	ld	l, a
                                   2655 ;	spillPairReg hl
                                   2656 ;	spillPairReg hl
      00089C C5               [11] 2657 	push	bc
      00089D 01 01 00         [10] 2658 	ld	bc, #0x0001
      0008A0 C5               [11] 2659 	push	bc
      0008A1 7D               [ 4] 2660 	ld	a, l
      0008A2 CDr00r00         [17] 2661 	call	_VDP_FillVRAM_16K
      0008A5 C1               [10] 2662 	pop	bc
                                   2663 ;./mandoroids.c:148: SetTileAtXY(x,14,new_column_buffer[1]>>6 & 1 << 1);
      0008A6 2Ar00r00         [16] 2664 	ld	hl, (_g_ScreenLayoutLow)
      0008A9 09               [11] 2665 	add	hl, bc
      0008AA 11 C0 01         [10] 2666 	ld	de, #0x01c0
      0008AD 19               [11] 2667 	add	hl, de
      0008AE EB               [ 4] 2668 	ex	de, hl
      0008AF 3ArEBr02         [13] 2669 	ld	a, (#(_new_column_buffer + 1) + 0)
      0008B2 07               [ 4] 2670 	rlca
      0008B3 07               [ 4] 2671 	rlca
      0008B4 E6 02            [ 7] 2672 	and	a, #0x2
      0008B6 6F               [ 4] 2673 	ld	l, a
                                   2674 ;	spillPairReg hl
                                   2675 ;	spillPairReg hl
      0008B7 C5               [11] 2676 	push	bc
      0008B8 01 01 00         [10] 2677 	ld	bc, #0x0001
      0008BB C5               [11] 2678 	push	bc
      0008BC 7D               [ 4] 2679 	ld	a, l
      0008BD CDr00r00         [17] 2680 	call	_VDP_FillVRAM_16K
      0008C0 C1               [10] 2681 	pop	bc
                                   2682 ;./mandoroids.c:149: SetTileAtXY(x,15,new_column_buffer[1]>>7 & 1 << 1);
      0008C1 2Ar00r00         [16] 2683 	ld	hl, (_g_ScreenLayoutLow)
      0008C4 09               [11] 2684 	add	hl, bc
      0008C5 11 E0 01         [10] 2685 	ld	de, #0x01e0
      0008C8 19               [11] 2686 	add	hl, de
      0008C9 EB               [ 4] 2687 	ex	de, hl
      0008CA 3ArEBr02         [13] 2688 	ld	a, (#(_new_column_buffer + 1) + 0)
      0008CD 07               [ 4] 2689 	rlca
      0008CE E6 00            [ 7] 2690 	and	a, #0x0
      0008D0 6F               [ 4] 2691 	ld	l, a
                                   2692 ;	spillPairReg hl
                                   2693 ;	spillPairReg hl
      0008D1 C5               [11] 2694 	push	bc
      0008D2 01 01 00         [10] 2695 	ld	bc, #0x0001
      0008D5 C5               [11] 2696 	push	bc
      0008D6 7D               [ 4] 2697 	ld	a, l
      0008D7 CDr00r00         [17] 2698 	call	_VDP_FillVRAM_16K
      0008DA C1               [10] 2699 	pop	bc
                                   2700 ;./mandoroids.c:151: SetTileAtXY(x,16,new_column_buffer[2] & 1 << 1);
      0008DB 2Ar00r00         [16] 2701 	ld	hl, (_g_ScreenLayoutLow)
      0008DE 09               [11] 2702 	add	hl, bc
      0008DF 5D               [ 4] 2703 	ld	e, l
      0008E0 7C               [ 4] 2704 	ld	a, h
      0008E1 C6 02            [ 7] 2705 	add	a, #0x02
      0008E3 57               [ 4] 2706 	ld	d, a
      0008E4 3ArECr02         [13] 2707 	ld	a, (#(_new_column_buffer + 2) + 0)
      0008E7 E6 02            [ 7] 2708 	and	a, #0x02
      0008E9 6F               [ 4] 2709 	ld	l, a
                                   2710 ;	spillPairReg hl
                                   2711 ;	spillPairReg hl
      0008EA C5               [11] 2712 	push	bc
      0008EB 01 01 00         [10] 2713 	ld	bc, #0x0001
      0008EE C5               [11] 2714 	push	bc
      0008EF 7D               [ 4] 2715 	ld	a, l
      0008F0 CDr00r00         [17] 2716 	call	_VDP_FillVRAM_16K
      0008F3 C1               [10] 2717 	pop	bc
                                   2718 ;./mandoroids.c:152: SetTileAtXY(x,17,new_column_buffer[2]>>1 & 1 << 1);
      0008F4 2Ar00r00         [16] 2719 	ld	hl, (_g_ScreenLayoutLow)
      0008F7 09               [11] 2720 	add	hl, bc
      0008F8 11 20 02         [10] 2721 	ld	de, #0x0220
      0008FB 19               [11] 2722 	add	hl, de
      0008FC EB               [ 4] 2723 	ex	de, hl
      0008FD 3ArECr02         [13] 2724 	ld	a, (#(_new_column_buffer + 2) + 0)
      000900 CB 3F            [ 8] 2725 	srl	a
      000902 E6 02            [ 7] 2726 	and	a, #0x02
      000904 6F               [ 4] 2727 	ld	l, a
                                   2728 ;	spillPairReg hl
                                   2729 ;	spillPairReg hl
      000905 C5               [11] 2730 	push	bc
      000906 01 01 00         [10] 2731 	ld	bc, #0x0001
      000909 C5               [11] 2732 	push	bc
      00090A 7D               [ 4] 2733 	ld	a, l
      00090B CDr00r00         [17] 2734 	call	_VDP_FillVRAM_16K
      00090E C1               [10] 2735 	pop	bc
                                   2736 ;./mandoroids.c:153: SetTileAtXY(x,18,new_column_buffer[2]>>2 & 1 << 1);
      00090F 2Ar00r00         [16] 2737 	ld	hl, (_g_ScreenLayoutLow)
      000912 09               [11] 2738 	add	hl, bc
      000913 11 40 02         [10] 2739 	ld	de, #0x0240
      000916 19               [11] 2740 	add	hl, de
      000917 EB               [ 4] 2741 	ex	de, hl
      000918 3ArECr02         [13] 2742 	ld	a, (#(_new_column_buffer + 2) + 0)
      00091B 0F               [ 4] 2743 	rrca
      00091C 0F               [ 4] 2744 	rrca
      00091D E6 02            [ 7] 2745 	and	a, #0x2
      00091F 6F               [ 4] 2746 	ld	l, a
                                   2747 ;	spillPairReg hl
                                   2748 ;	spillPairReg hl
      000920 C5               [11] 2749 	push	bc
      000921 01 01 00         [10] 2750 	ld	bc, #0x0001
      000924 C5               [11] 2751 	push	bc
      000925 7D               [ 4] 2752 	ld	a, l
      000926 CDr00r00         [17] 2753 	call	_VDP_FillVRAM_16K
      000929 C1               [10] 2754 	pop	bc
                                   2755 ;./mandoroids.c:154: SetTileAtXY(x,19,new_column_buffer[2]>>3 & 1 << 1);
      00092A 2Ar00r00         [16] 2756 	ld	hl, (_g_ScreenLayoutLow)
      00092D 09               [11] 2757 	add	hl, bc
      00092E 11 60 02         [10] 2758 	ld	de, #0x0260
      000931 19               [11] 2759 	add	hl, de
      000932 EB               [ 4] 2760 	ex	de, hl
      000933 3ArECr02         [13] 2761 	ld	a, (#(_new_column_buffer + 2) + 0)
      000936 0F               [ 4] 2762 	rrca
      000937 0F               [ 4] 2763 	rrca
      000938 0F               [ 4] 2764 	rrca
      000939 E6 02            [ 7] 2765 	and	a, #0x2
      00093B 6F               [ 4] 2766 	ld	l, a
                                   2767 ;	spillPairReg hl
                                   2768 ;	spillPairReg hl
      00093C C5               [11] 2769 	push	bc
      00093D 01 01 00         [10] 2770 	ld	bc, #0x0001
      000940 C5               [11] 2771 	push	bc
      000941 7D               [ 4] 2772 	ld	a, l
      000942 CDr00r00         [17] 2773 	call	_VDP_FillVRAM_16K
      000945 C1               [10] 2774 	pop	bc
                                   2775 ;./mandoroids.c:155: SetTileAtXY(x,20,new_column_buffer[2]>>4 & 1 << 1);
      000946 2Ar00r00         [16] 2776 	ld	hl, (_g_ScreenLayoutLow)
      000949 09               [11] 2777 	add	hl, bc
      00094A 11 80 02         [10] 2778 	ld	de, #0x0280
      00094D 19               [11] 2779 	add	hl, de
      00094E EB               [ 4] 2780 	ex	de, hl
      00094F 3ArECr02         [13] 2781 	ld	a, (#(_new_column_buffer + 2) + 0)
      000952 07               [ 4] 2782 	rlca
      000953 07               [ 4] 2783 	rlca
      000954 07               [ 4] 2784 	rlca
      000955 07               [ 4] 2785 	rlca
      000956 E6 02            [ 7] 2786 	and	a, #0x2
      000958 6F               [ 4] 2787 	ld	l, a
                                   2788 ;	spillPairReg hl
                                   2789 ;	spillPairReg hl
      000959 C5               [11] 2790 	push	bc
      00095A 01 01 00         [10] 2791 	ld	bc, #0x0001
      00095D C5               [11] 2792 	push	bc
      00095E 7D               [ 4] 2793 	ld	a, l
      00095F CDr00r00         [17] 2794 	call	_VDP_FillVRAM_16K
      000962 C1               [10] 2795 	pop	bc
                                   2796 ;./mandoroids.c:156: SetTileAtXY(x,21,new_column_buffer[2]>>5 & 1 << 1);
      000963 2Ar00r00         [16] 2797 	ld	hl, (_g_ScreenLayoutLow)
      000966 09               [11] 2798 	add	hl, bc
      000967 11 A0 02         [10] 2799 	ld	de, #0x02a0
      00096A 19               [11] 2800 	add	hl, de
      00096B EB               [ 4] 2801 	ex	de, hl
      00096C 3ArECr02         [13] 2802 	ld	a, (#(_new_column_buffer + 2) + 0)
      00096F 07               [ 4] 2803 	rlca
      000970 07               [ 4] 2804 	rlca
      000971 07               [ 4] 2805 	rlca
      000972 E6 02            [ 7] 2806 	and	a, #0x2
      000974 6F               [ 4] 2807 	ld	l, a
                                   2808 ;	spillPairReg hl
                                   2809 ;	spillPairReg hl
      000975 C5               [11] 2810 	push	bc
      000976 01 01 00         [10] 2811 	ld	bc, #0x0001
      000979 C5               [11] 2812 	push	bc
      00097A 7D               [ 4] 2813 	ld	a, l
      00097B CDr00r00         [17] 2814 	call	_VDP_FillVRAM_16K
      00097E C1               [10] 2815 	pop	bc
                                   2816 ;./mandoroids.c:157: SetTileAtXY(x,22,new_column_buffer[2]>>6 & 1 << 1);
      00097F 2Ar00r00         [16] 2817 	ld	hl, (_g_ScreenLayoutLow)
      000982 09               [11] 2818 	add	hl, bc
      000983 11 C0 02         [10] 2819 	ld	de, #0x02c0
      000986 19               [11] 2820 	add	hl, de
      000987 EB               [ 4] 2821 	ex	de, hl
      000988 3ArECr02         [13] 2822 	ld	a, (#(_new_column_buffer + 2) + 0)
      00098B 07               [ 4] 2823 	rlca
      00098C 07               [ 4] 2824 	rlca
      00098D E6 02            [ 7] 2825 	and	a, #0x2
      00098F 6F               [ 4] 2826 	ld	l, a
                                   2827 ;	spillPairReg hl
                                   2828 ;	spillPairReg hl
      000990 C5               [11] 2829 	push	bc
      000991 01 01 00         [10] 2830 	ld	bc, #0x0001
      000994 C5               [11] 2831 	push	bc
      000995 7D               [ 4] 2832 	ld	a, l
      000996 CDr00r00         [17] 2833 	call	_VDP_FillVRAM_16K
      000999 C1               [10] 2834 	pop	bc
                                   2835 ;./mandoroids.c:158: SetTileAtXY(x,23,new_column_buffer[2]>>7 & 1 << 1);
      00099A 2Ar00r00         [16] 2836 	ld	hl, (_g_ScreenLayoutLow)
      00099D 09               [11] 2837 	add	hl, bc
      00099E 01 E0 02         [10] 2838 	ld	bc, #0x02e0
      0009A1 09               [11] 2839 	add	hl, bc
      0009A2 EB               [ 4] 2840 	ex	de, hl
      0009A3 3ArECr02         [13] 2841 	ld	a, (#(_new_column_buffer + 2) + 0)
      0009A6 07               [ 4] 2842 	rlca
      0009A7 E6 00            [ 7] 2843 	and	a, #0x0
      0009A9 4F               [ 4] 2844 	ld	c, a
      0009AA 21 01 00         [10] 2845 	ld	hl, #0x0001
      0009AD E5               [11] 2846 	push	hl
      0009AE 79               [ 4] 2847 	ld	a, c
      0009AF CDr00r00         [17] 2848 	call	_VDP_FillVRAM_16K
                                   2849 ;./mandoroids.c:160: }
      0009B2 C9               [10] 2850 	ret
                                   2851 ;./mandoroids.c:162: void Shoot() {
                                   2852 ;	---------------------------------
                                   2853 ; Function Shoot
                                   2854 ; ---------------------------------
      0009B3                       2855 _Shoot::
      0009B3 DD E5            [15] 2856 	push	ix
      0009B5 DD 21 00 00      [14] 2857 	ld	ix,#0
      0009B9 DD 39            [15] 2858 	add	ix,sp
      0009BB F5               [11] 2859 	push	af
                                   2860 ;./mandoroids.c:164: if (shot_active==FALSE) {
      0009BC 3Ar22r00         [13] 2861 	ld	a, (_shot_active+0)
      0009BF B7               [ 4] 2862 	or	a, a
      0009C0 C2r42r0A         [10] 2863 	jp	NZ, 00103$
                                   2864 ;./mandoroids.c:165: shot_active = TRUE;
      0009C3 21r22r00         [10] 2865 	ld	hl, #_shot_active
      0009C6 36 01            [10] 2866 	ld	(hl), #0x01
                                   2867 ;./mandoroids.c:167: shot_pos[0] = px-4;
      0009C8 11r1Er00         [10] 2868 	ld	de, #_shot_pos+0
      0009CB 3Ar00r00         [13] 2869 	ld	a, (_px+0)
      0009CE C6 FC            [ 7] 2870 	add	a, #0xfc
      0009D0 12               [ 7] 2871 	ld	(de), a
                                   2872 ;./mandoroids.c:168: shot_pos[1] = py-4;
      0009D1 4B               [ 4] 2873 	ld	c, e
      0009D2 42               [ 4] 2874 	ld	b, d
      0009D3 03               [ 6] 2875 	inc	bc
      0009D4 3Ar01r00         [13] 2876 	ld	a, (_py+0)
      0009D7 C6 FC            [ 7] 2877 	add	a, #0xfc
      0009D9 02               [ 7] 2878 	ld	(bc), a
                                   2879 ;./mandoroids.c:170: shot_pos_tile[0] = (shot_pos[0]+32)/8;
      0009DA 1A               [ 7] 2880 	ld	a, (de)
      0009DB 6F               [ 4] 2881 	ld	l, a
                                   2882 ;	spillPairReg hl
                                   2883 ;	spillPairReg hl
      0009DC 26 00            [ 7] 2884 	ld	h, #0x00
                                   2885 ;	spillPairReg hl
                                   2886 ;	spillPairReg hl
      0009DE 7D               [ 4] 2887 	ld	a, l
      0009DF C6 20            [ 7] 2888 	add	a, #0x20
      0009E1 DD 77 FE         [19] 2889 	ld	-2 (ix), a
      0009E4 7C               [ 4] 2890 	ld	a, h
      0009E5 CE 00            [ 7] 2891 	adc	a, #0x00
      0009E7 DD 77 FF         [19] 2892 	ld	-1 (ix), a
      0009EA D1               [10] 2893 	pop	de
      0009EB D5               [11] 2894 	push	de
      0009EC DD CB FF 7E      [20] 2895 	bit	7, -1 (ix)
      0009F0 28 05            [12] 2896 	jr	Z, 00105$
      0009F2 11 27 00         [10] 2897 	ld	de, #0x27
      0009F5 19               [11] 2898 	add	hl, de
      0009F6 EB               [ 4] 2899 	ex	de,hl
      0009F7                       2900 00105$:
      0009F7 CB 2A            [ 8] 2901 	sra	d
      0009F9 CB 1B            [ 8] 2902 	rr	e
      0009FB CB 2A            [ 8] 2903 	sra	d
      0009FD CB 1B            [ 8] 2904 	rr	e
      0009FF CB 2A            [ 8] 2905 	sra	d
      000A01 CB 1B            [ 8] 2906 	rr	e
      000A03 21r20r00         [10] 2907 	ld	hl, #_shot_pos_tile
      000A06 73               [ 7] 2908 	ld	(hl), e
                                   2909 ;./mandoroids.c:171: shot_pos_tile[1] = (shot_pos[1]+16)/8;
      000A07 0A               [ 7] 2910 	ld	a, (bc)
      000A08 4F               [ 4] 2911 	ld	c, a
      000A09 06 00            [ 7] 2912 	ld	b, #0x00
      000A0B 21 10 00         [10] 2913 	ld	hl, #0x0010
      000A0E 09               [11] 2914 	add	hl, bc
      000A0F 5D               [ 4] 2915 	ld	e, l
      000A10 54               [ 4] 2916 	ld	d, h
      000A11 CB 7C            [ 8] 2917 	bit	7, h
      000A13 28 05            [12] 2918 	jr	Z, 00106$
      000A15 21 17 00         [10] 2919 	ld	hl, #0x0017
      000A18 09               [11] 2920 	add	hl, bc
      000A19 EB               [ 4] 2921 	ex	de, hl
      000A1A                       2922 00106$:
      000A1A CB 2A            [ 8] 2923 	sra	d
      000A1C CB 1B            [ 8] 2924 	rr	e
      000A1E CB 2A            [ 8] 2925 	sra	d
      000A20 CB 1B            [ 8] 2926 	rr	e
      000A22 CB 2A            [ 8] 2927 	sra	d
      000A24 CB 1B            [ 8] 2928 	rr	e
      000A26 21r21r00         [10] 2929 	ld	hl, #(_shot_pos_tile + 1)
      000A29 73               [ 7] 2930 	ld	(hl), e
                                   2931 ;./mandoroids.c:173: VDP_SetSpritePosition(1,px-4,py-4);
      000A2A 3Ar01r00         [13] 2932 	ld	a, (_py+0)
      000A2D C6 FC            [ 7] 2933 	add	a, #0xfc
      000A2F 47               [ 4] 2934 	ld	b, a
      000A30 3Ar00r00         [13] 2935 	ld	a, (_px+0)
      000A33 C6 FC            [ 7] 2936 	add	a, #0xfc
      000A35 6F               [ 4] 2937 	ld	l, a
                                   2938 ;	spillPairReg hl
                                   2939 ;	spillPairReg hl
      000A36 C5               [11] 2940 	push	bc
      000A37 33               [ 6] 2941 	inc	sp
      000A38 3E 01            [ 7] 2942 	ld	a, #0x01
      000A3A CDr00r00         [17] 2943 	call	_VDP_SetSpritePosition
                                   2944 ;./mandoroids.c:174: can_shoot = FALSE;
      000A3D 21r11r00         [10] 2945 	ld	hl, #_can_shoot
      000A40 36 00            [10] 2946 	ld	(hl), #0x00
      000A42                       2947 00103$:
                                   2948 ;./mandoroids.c:178: }
      000A42 DD F9            [10] 2949 	ld	sp, ix
      000A44 DD E1            [14] 2950 	pop	ix
      000A46 C9               [10] 2951 	ret
                                   2952 ;./mandoroids.c:180: void UpdateShots() {
                                   2953 ;	---------------------------------
                                   2954 ; Function UpdateShots
                                   2955 ; ---------------------------------
      000A47                       2956 _UpdateShots::
      000A47 DD E5            [15] 2957 	push	ix
      000A49 DD 21 00 00      [14] 2958 	ld	ix,#0
      000A4D DD 39            [15] 2959 	add	ix,sp
      000A4F 3B               [ 6] 2960 	dec	sp
                                   2961 ;./mandoroids.c:182: if (shot_active==TRUE) {
      000A50 3Ar22r00         [13] 2962 	ld	a, (_shot_active+0)
      000A53 3D               [ 4] 2963 	dec	a
      000A54 C2r06r0B         [10] 2964 	jp	NZ,00109$
                                   2965 ;./mandoroids.c:183: shot_pos[0]+=2;
      000A57 01r1Er00         [10] 2966 	ld	bc, #_shot_pos+0
      000A5A 0A               [ 7] 2967 	ld	a, (bc)
      000A5B C6 02            [ 7] 2968 	add	a, #0x02
      000A5D 02               [ 7] 2969 	ld	(bc), a
                                   2970 ;./mandoroids.c:184: VDP_SetSpritePosition(1,shot_pos[0],shot_pos[1]);
      000A5E 21r1Fr00         [10] 2971 	ld	hl, #(_shot_pos + 1)
      000A61 56               [ 7] 2972 	ld	d, (hl)
      000A62 0A               [ 7] 2973 	ld	a, (bc)
      000A63 6F               [ 4] 2974 	ld	l, a
                                   2975 ;	spillPairReg hl
                                   2976 ;	spillPairReg hl
      000A64 C5               [11] 2977 	push	bc
      000A65 D5               [11] 2978 	push	de
      000A66 33               [ 6] 2979 	inc	sp
      000A67 3E 01            [ 7] 2980 	ld	a, #0x01
      000A69 CDr00r00         [17] 2981 	call	_VDP_SetSpritePosition
      000A6C C1               [10] 2982 	pop	bc
                                   2983 ;./mandoroids.c:185: if (shot_pos[0]>=250) {
      000A6D 0A               [ 7] 2984 	ld	a, (bc)
      000A6E D6 FA            [ 7] 2985 	sub	a, #0xfa
      000A70 38 0E            [12] 2986 	jr	C, 00102$
                                   2987 ;./mandoroids.c:186: shot_active = FALSE;
      000A72 21r22r00         [10] 2988 	ld	hl, #_shot_active
      000A75 36 00            [10] 2989 	ld	(hl), #0x00
                                   2990 ;C:/MSXgl-main/MSXgl-main/engine/src/vdp.h:1121: inline void VDP_HideSprite(u8 index) { VDP_SetSpritePositionY(index, VDP_SPRITE_HIDE); }
      000A77 C5               [11] 2991 	push	bc
      000A78 2E D5            [ 7] 2992 	ld	l, #0xd5
                                   2993 ;	spillPairReg hl
                                   2994 ;	spillPairReg hl
      000A7A 3E 01            [ 7] 2995 	ld	a, #0x01
      000A7C CDr00r00         [17] 2996 	call	_VDP_SetSpritePositionY
      000A7F C1               [10] 2997 	pop	bc
                                   2998 ;./mandoroids.c:187: VDP_HideSprite(1);
      000A80                       2999 00102$:
                                   3000 ;./mandoroids.c:190: char tlx = ((shot_pos[0]+32)/8)-2;
      000A80 0A               [ 7] 3001 	ld	a, (bc)
      000A81 4F               [ 4] 3002 	ld	c, a
      000A82 06 00            [ 7] 3003 	ld	b, #0x00
      000A84 21 20 00         [10] 3004 	ld	hl, #0x0020
      000A87 09               [11] 3005 	add	hl, bc
      000A88 5D               [ 4] 3006 	ld	e, l
      000A89 54               [ 4] 3007 	ld	d, h
      000A8A CB 7C            [ 8] 3008 	bit	7, h
      000A8C 28 05            [12] 3009 	jr	Z, 00111$
      000A8E 21 27 00         [10] 3010 	ld	hl, #0x0027
      000A91 09               [11] 3011 	add	hl, bc
      000A92 EB               [ 4] 3012 	ex	de, hl
      000A93                       3013 00111$:
      000A93 CB 2A            [ 8] 3014 	sra	d
      000A95 CB 1B            [ 8] 3015 	rr	e
      000A97 CB 2A            [ 8] 3016 	sra	d
      000A99 CB 1B            [ 8] 3017 	rr	e
      000A9B CB 2A            [ 8] 3018 	sra	d
      000A9D CB 1B            [ 8] 3019 	rr	e
      000A9F 7B               [ 4] 3020 	ld	a, e
      000AA0 C6 FE            [ 7] 3021 	add	a, #0xfe
      000AA2 DD 77 FF         [19] 3022 	ld	-1 (ix), a
                                   3023 ;./mandoroids.c:191: char tly = (shot_pos[1]+16)/8;
      000AA5 3Ar1Fr00         [13] 3024 	ld	a, (#(_shot_pos + 1) + 0)
      000AA8 4F               [ 4] 3025 	ld	c, a
      000AA9 06 00            [ 7] 3026 	ld	b, #0x00
      000AAB 21 10 00         [10] 3027 	ld	hl, #0x0010
      000AAE 09               [11] 3028 	add	hl, bc
      000AAF 5D               [ 4] 3029 	ld	e, l
      000AB0 54               [ 4] 3030 	ld	d, h
      000AB1 CB 7C            [ 8] 3031 	bit	7, h
      000AB3 28 05            [12] 3032 	jr	Z, 00112$
      000AB5 21 17 00         [10] 3033 	ld	hl, #0x0017
      000AB8 09               [11] 3034 	add	hl, bc
      000AB9 EB               [ 4] 3035 	ex	de, hl
      000ABA                       3036 00112$:
      000ABA CB 2A            [ 8] 3037 	sra	d
      000ABC CB 1B            [ 8] 3038 	rr	e
      000ABE CB 2A            [ 8] 3039 	sra	d
      000AC0 CB 1B            [ 8] 3040 	rr	e
      000AC2 CB 2A            [ 8] 3041 	sra	d
      000AC4 CB 1B            [ 8] 3042 	rr	e
                                   3043 ;./mandoroids.c:193: char tl = GetTileAtXY(tlx,tly);
      000AC6 DD 4E FF         [19] 3044 	ld	c, -1 (ix)
      000AC9 06 00            [ 7] 3045 	ld	b, #0x00
      000ACB 2Ar00r00         [16] 3046 	ld	hl, (_g_ScreenLayoutLow)
      000ACE 09               [11] 3047 	add	hl, bc
      000ACF 16 00            [ 7] 3048 	ld	d, #0x00
      000AD1 EB               [ 4] 3049 	ex	de, hl
      000AD2 29               [11] 3050 	add	hl, hl
      000AD3 29               [11] 3051 	add	hl, hl
      000AD4 29               [11] 3052 	add	hl, hl
      000AD5 29               [11] 3053 	add	hl, hl
      000AD6 29               [11] 3054 	add	hl, hl
      000AD7 EB               [ 4] 3055 	ex	de, hl
      000AD8 19               [11] 3056 	add	hl, de
      000AD9 CDr00r00         [17] 3057 	call	_VDP_Peek_16K
                                   3058 ;./mandoroids.c:194: if (tl==2) {
      000ADC D6 02            [ 7] 3059 	sub	a, #0x02
      000ADE 20 26            [12] 3060 	jr	NZ, 00109$
                                   3061 ;./mandoroids.c:195: SetTileAtXY(tlx,tly,0);
      000AE0 2Ar00r00         [16] 3062 	ld	hl, (_g_ScreenLayoutLow)
      000AE3 09               [11] 3063 	add	hl, bc
      000AE4 19               [11] 3064 	add	hl, de
      000AE5 EB               [ 4] 3065 	ex	de, hl
      000AE6 21 01 00         [10] 3066 	ld	hl, #0x0001
      000AE9 E5               [11] 3067 	push	hl
      000AEA AF               [ 4] 3068 	xor	a, a
      000AEB CDr00r00         [17] 3069 	call	_VDP_FillVRAM_16K
                                   3070 ;./mandoroids.c:196: shot_active = FALSE;
      000AEE 21r22r00         [10] 3071 	ld	hl, #_shot_active
      000AF1 36 00            [10] 3072 	ld	(hl), #0x00
                                   3073 ;C:/MSXgl-main/MSXgl-main/engine/src/vdp.h:1121: inline void VDP_HideSprite(u8 index) { VDP_SetSpritePositionY(index, VDP_SPRITE_HIDE); }
      000AF3 2E D5            [ 7] 3074 	ld	l, #0xd5
                                   3075 ;	spillPairReg hl
                                   3076 ;	spillPairReg hl
      000AF5 3E 01            [ 7] 3077 	ld	a, #0x01
      000AF7 CDr00r00         [17] 3078 	call	_VDP_SetSpritePositionY
                                   3079 ;./mandoroids.c:199: asteroids_shot++;
      000AFA 2Ar18r00         [16] 3080 	ld	hl, (_asteroids_shot)
      000AFD 23               [ 6] 3081 	inc	hl
      000AFE 22r18r00         [16] 3082 	ld	(_asteroids_shot), hl
                                   3083 ;./mandoroids.c:200: asteroid_destroyed = TRUE;
      000B01 21r1Br00         [10] 3084 	ld	hl, #_asteroid_destroyed
      000B04 36 01            [10] 3085 	ld	(hl), #0x01
      000B06                       3086 00109$:
                                   3087 ;./mandoroids.c:204: }
      000B06 33               [ 6] 3088 	inc	sp
      000B07 DD E1            [14] 3089 	pop	ix
      000B09 C9               [10] 3090 	ret
                                   3091 ;./mandoroids.c:206: void UpdateCollision() {
                                   3092 ;	---------------------------------
                                   3093 ; Function UpdateCollision
                                   3094 ; ---------------------------------
      000B0A                       3095 _UpdateCollision::
      000B0A DD E5            [15] 3096 	push	ix
      000B0C DD 21 00 00      [14] 3097 	ld	ix,#0
      000B10 DD 39            [15] 3098 	add	ix,sp
      000B12 F5               [11] 3099 	push	af
                                   3100 ;./mandoroids.c:208: char cx = (px + 16)/8;
      000B13 3Ar00r00         [13] 3101 	ld	a, (_px+0)
      000B16 4F               [ 4] 3102 	ld	c, a
      000B17 06 00            [ 7] 3103 	ld	b, #0x00
      000B19 21 10 00         [10] 3104 	ld	hl, #0x0010
      000B1C 09               [11] 3105 	add	hl, bc
      000B1D 5D               [ 4] 3106 	ld	e, l
      000B1E 54               [ 4] 3107 	ld	d, h
      000B1F CB 7C            [ 8] 3108 	bit	7, h
      000B21 28 05            [12] 3109 	jr	Z, 00107$
      000B23 21 17 00         [10] 3110 	ld	hl, #0x0017
      000B26 09               [11] 3111 	add	hl, bc
      000B27 EB               [ 4] 3112 	ex	de, hl
      000B28                       3113 00107$:
      000B28 CB 2A            [ 8] 3114 	sra	d
      000B2A CB 1B            [ 8] 3115 	rr	e
      000B2C CB 2A            [ 8] 3116 	sra	d
      000B2E CB 1B            [ 8] 3117 	rr	e
      000B30 CB 2A            [ 8] 3118 	sra	d
      000B32 CB 1B            [ 8] 3119 	rr	e
      000B34 DD 73 FF         [19] 3120 	ld	-1 (ix), e
                                   3121 ;./mandoroids.c:209: char cy = (py + 16)/8;
      000B37 3Ar01r00         [13] 3122 	ld	a, (_py+0)
      000B3A 4F               [ 4] 3123 	ld	c, a
      000B3B 06 00            [ 7] 3124 	ld	b, #0x00
      000B3D 21 10 00         [10] 3125 	ld	hl, #0x0010
      000B40 09               [11] 3126 	add	hl, bc
                                   3127 ;	spillPairReg hl
                                   3128 ;	spillPairReg hl
      000B41 54               [ 4] 3129 	ld	d, h
                                   3130 ;	spillPairReg hl
                                   3131 ;	spillPairReg hl
      000B42 CB 7A            [ 8] 3132 	bit	7, d
      000B44 28 04            [12] 3133 	jr	Z, 00108$
      000B46 21 17 00         [10] 3134 	ld	hl, #0x0017
      000B49 09               [11] 3135 	add	hl, bc
      000B4A                       3136 00108$:
      000B4A CB 2C            [ 8] 3137 	sra	h
      000B4C CB 1D            [ 8] 3138 	rr	l
      000B4E CB 2C            [ 8] 3139 	sra	h
      000B50 CB 1D            [ 8] 3140 	rr	l
      000B52 CB 2C            [ 8] 3141 	sra	h
      000B54 CB 1D            [ 8] 3142 	rr	l
                                   3143 ;./mandoroids.c:210: char cy2 = cy+1;
      000B56 7D               [ 4] 3144 	ld	a, l
      000B57 5F               [ 4] 3145 	ld	e, a
      000B58 1C               [ 4] 3146 	inc	e
                                   3147 ;./mandoroids.c:211: char cy3 = cy-1;
      000B59 3D               [ 4] 3148 	dec	a
      000B5A DD 77 FE         [19] 3149 	ld	-2 (ix), a
                                   3150 ;./mandoroids.c:213: char tl = GetTileAtXY(cx,cy);
      000B5D DD 4E FF         [19] 3151 	ld	c, -1 (ix)
      000B60 06 00            [ 7] 3152 	ld	b, #0x00
      000B62 FD 2Ar00r00      [20] 3153 	ld	iy, (_g_ScreenLayoutLow)
      000B66 FD 09            [15] 3154 	add	iy, bc
      000B68 26 00            [ 7] 3155 	ld	h, #0x00
                                   3156 ;	spillPairReg hl
                                   3157 ;	spillPairReg hl
      000B6A 29               [11] 3158 	add	hl, hl
      000B6B 29               [11] 3159 	add	hl, hl
      000B6C 29               [11] 3160 	add	hl, hl
      000B6D 29               [11] 3161 	add	hl, hl
      000B6E 29               [11] 3162 	add	hl, hl
      000B6F C5               [11] 3163 	push	bc
      000B70 4D               [ 4] 3164 	ld	c, l
      000B71 44               [ 4] 3165 	ld	b, h
      000B72 FD 09            [15] 3166 	add	iy, bc
      000B74 C1               [10] 3167 	pop	bc
      000B75 FD E5            [15] 3168 	push	iy
      000B77 E1               [10] 3169 	pop	hl
      000B78 CDr00r00         [17] 3170 	call	_VDP_Peek_16K
      000B7B DD 77 FF         [19] 3171 	ld	-1 (ix), a
                                   3172 ;./mandoroids.c:214: char tl2 = GetTileAtXY(cx,cy2);
      000B7E 2Ar00r00         [16] 3173 	ld	hl, (_g_ScreenLayoutLow)
      000B81 09               [11] 3174 	add	hl, bc
      000B82 16 00            [ 7] 3175 	ld	d, #0x00
      000B84 EB               [ 4] 3176 	ex	de, hl
      000B85 29               [11] 3177 	add	hl, hl
      000B86 29               [11] 3178 	add	hl, hl
      000B87 29               [11] 3179 	add	hl, hl
      000B88 29               [11] 3180 	add	hl, hl
      000B89 29               [11] 3181 	add	hl, hl
      000B8A EB               [ 4] 3182 	ex	de, hl
      000B8B 19               [11] 3183 	add	hl, de
      000B8C CDr00r00         [17] 3184 	call	_VDP_Peek_16K
      000B8F 5F               [ 4] 3185 	ld	e, a
                                   3186 ;./mandoroids.c:215: char tl3 = GetTileAtXY(cx,cy3);
      000B90 2Ar00r00         [16] 3187 	ld	hl, (_g_ScreenLayoutLow)
      000B93 09               [11] 3188 	add	hl, bc
      000B94 4D               [ 4] 3189 	ld	c, l
      000B95 44               [ 4] 3190 	ld	b, h
      000B96 DD 6E FE         [19] 3191 	ld	l, -2 (ix)
                                   3192 ;	spillPairReg hl
                                   3193 ;	spillPairReg hl
      000B99 26 00            [ 7] 3194 	ld	h, #0x00
                                   3195 ;	spillPairReg hl
                                   3196 ;	spillPairReg hl
      000B9B 29               [11] 3197 	add	hl, hl
      000B9C 29               [11] 3198 	add	hl, hl
      000B9D 29               [11] 3199 	add	hl, hl
      000B9E 29               [11] 3200 	add	hl, hl
      000B9F 29               [11] 3201 	add	hl, hl
      000BA0 09               [11] 3202 	add	hl, bc
      000BA1 CDr00r00         [17] 3203 	call	_VDP_Peek_16K
      000BA4 4F               [ 4] 3204 	ld	c, a
                                   3205 ;./mandoroids.c:217: if (tl==2 || tl2==2 || tl3==2) {
      000BA5 DD 7E FF         [19] 3206 	ld	a, -1 (ix)
      000BA8 D6 02            [ 7] 3207 	sub	a, #0x02
      000BAA 28 0A            [12] 3208 	jr	Z, 00101$
      000BAC 7B               [ 4] 3209 	ld	a, e
      000BAD D6 02            [ 7] 3210 	sub	a, #0x02
      000BAF 28 05            [12] 3211 	jr	Z, 00101$
      000BB1 79               [ 4] 3212 	ld	a, c
      000BB2 D6 02            [ 7] 3213 	sub	a, #0x02
      000BB4 20 03            [12] 3214 	jr	NZ, 00105$
      000BB6                       3215 00101$:
                                   3216 ;./mandoroids.c:218: FinalScreen();
      000BB6 CDr33r0D         [17] 3217 	call	_FinalScreen
      000BB9                       3218 00105$:
                                   3219 ;./mandoroids.c:221: }
      000BB9 DD F9            [10] 3220 	ld	sp, ix
      000BBB DD E1            [14] 3221 	pop	ix
      000BBD C9               [10] 3222 	ret
                                   3223 ;./mandoroids.c:223: void ResetGame() {
                                   3224 ;	---------------------------------
                                   3225 ; Function ResetGame
                                   3226 ; ---------------------------------
      000BBE                       3227 _ResetGame::
                                   3228 ;./mandoroids.c:225: asteroids_shot = 0;
      000BBE 21 00 00         [10] 3229 	ld	hl, #0x0000
      000BC1 22r18r00         [16] 3230 	ld	(_asteroids_shot), hl
                                   3231 ;./mandoroids.c:227: difficulty_timer = 0;
      000BC4 22r14r00         [16] 3232 	ld	(_difficulty_timer), hl
                                   3233 ;./mandoroids.c:229: speed_up_timer = 0;
      000BC7 22r16r00         [16] 3234 	ld	(_speed_up_timer), hl
                                   3235 ;./mandoroids.c:231: asteroid_chance = 10;
      000BCA 21r0Er00         [10] 3236 	ld	hl, #_asteroid_chance
      000BCD 36 0A            [10] 3237 	ld	(hl), #0x0a
                                   3238 ;./mandoroids.c:233: scroll_rate = 128;
      000BCF 21r0Dr00         [10] 3239 	ld	hl, #_scroll_rate
      000BD2 36 80            [10] 3240 	ld	(hl), #0x80
                                   3241 ;./mandoroids.c:235: can_reset = FALSE;
      000BD4 21r1Dr00         [10] 3242 	ld	hl, #_can_reset
      000BD7 36 00            [10] 3243 	ld	(hl), #0x00
                                   3244 ;C:/MSXgl-main/MSXgl-main/engine/src/vdp.h:629: inline void VDP_EnableDisplay(bool enable) { VDP_RegWriteBakMask(1, (u8)~R01_BL, enable ? R01_BL : 0); }
      000BD9 AF               [ 4] 3245 	xor	a, a
      000BDA F5               [11] 3246 	push	af
      000BDB 33               [ 6] 3247 	inc	sp
      000BDC 2E BF            [ 7] 3248 	ld	l, #0xbf
                                   3249 ;	spillPairReg hl
                                   3250 ;	spillPairReg hl
      000BDE 3E 01            [ 7] 3251 	ld	a, #0x01
      000BE0 CDr00r00         [17] 3252 	call	_VDP_RegWriteBakMask
                                   3253 ;./mandoroids.c:239: VDP_ClearVRAM();
      000BE3 CDr00r00         [17] 3254 	call	_VDP_ClearVRAM
                                   3255 ;C:/MSXgl-main/MSXgl-main/engine/src/vdp.h:643: inline void VDP_SetColor(u8 color) { VDP_RegWrite(7, color); }
      000BE6 2E 01            [ 7] 3256 	ld	l, #0x01
                                   3257 ;	spillPairReg hl
                                   3258 ;	spillPairReg hl
      000BE8 3E 07            [ 7] 3259 	ld	a, #0x07
      000BEA CDr00r00         [17] 3260 	call	_VDP_RegWrite
                                   3261 ;./mandoroids.c:243: Print_SetTextFont(g_Font_MGL_Sample6, 1);
      000BED 3E 01            [ 7] 3262 	ld	a, #0x01
      000BEF F5               [11] 3263 	push	af
      000BF0 33               [ 6] 3264 	inc	sp
      000BF1 21rB2r00         [10] 3265 	ld	hl, #_g_Font_MGL_Sample6
      000BF4 CDr00r00         [17] 3266 	call	_Print_SetTextFont
                                   3267 ;C:/MSXgl-main/MSXgl-main/engine/src/print.h:203: g_PrintData.CursorX = x;
      000BF7 21r05r00         [10] 3268 	ld	hl, #(_g_PrintData + 5)
      000BFA 36 0B            [10] 3269 	ld	(hl), #0x0b
                                   3270 ;C:/MSXgl-main/MSXgl-main/engine/src/print.h:204: g_PrintData.CursorY = y;
      000BFC 21r06r00         [10] 3271 	ld	hl, #(_g_PrintData + 6)
      000BFF 36 02            [10] 3272 	ld	(hl), #0x02
                                   3273 ;./mandoroids.c:246: Print_DrawText("MANDOROIDS");
      000C01 21rD6r0C         [10] 3274 	ld	hl, #___str_0
      000C04 CDr00r00         [17] 3275 	call	_Print_DrawText
                                   3276 ;C:/MSXgl-main/MSXgl-main/engine/src/print.h:203: g_PrintData.CursorX = x;
      000C07 21r05r00         [10] 3277 	ld	hl, #(_g_PrintData + 5)
      000C0A 36 06            [10] 3278 	ld	(hl), #0x06
                                   3279 ;C:/MSXgl-main/MSXgl-main/engine/src/print.h:204: g_PrintData.CursorY = y;
      000C0C 21r06r00         [10] 3280 	ld	hl, #(_g_PrintData + 6)
      000C0F 36 05            [10] 3281 	ld	(hl), #0x05
                                   3282 ;./mandoroids.c:249: Print_DrawText("Atire nos asteroides");
      000C11 21rE1r0C         [10] 3283 	ld	hl, #___str_1
      000C14 CDr00r00         [17] 3284 	call	_Print_DrawText
                                   3285 ;C:/MSXgl-main/MSXgl-main/engine/src/print.h:203: g_PrintData.CursorX = x;
      000C17 21r05r00         [10] 3286 	ld	hl, #(_g_PrintData + 5)
      000C1A 36 03            [10] 3287 	ld	(hl), #0x03
                                   3288 ;C:/MSXgl-main/MSXgl-main/engine/src/print.h:204: g_PrintData.CursorY = y;
      000C1C 21r06r00         [10] 3289 	ld	hl, #(_g_PrintData + 6)
      000C1F 36 08            [10] 3290 	ld	(hl), #0x08
                                   3291 ;./mandoroids.c:252: Print_DrawText("SETAS movem, ESPACO atira");
      000C21 21rF6r0C         [10] 3292 	ld	hl, #___str_2
      000C24 CDr00r00         [17] 3293 	call	_Print_DrawText
                                   3294 ;C:/MSXgl-main/MSXgl-main/engine/src/print.h:203: g_PrintData.CursorX = x;
      000C27 21r05r00         [10] 3295 	ld	hl, #(_g_PrintData + 5)
      000C2A 36 07            [10] 3296 	ld	(hl), #0x07
                                   3297 ;C:/MSXgl-main/MSXgl-main/engine/src/print.h:204: g_PrintData.CursorY = y;
      000C2C 21r06r00         [10] 3298 	ld	hl, #(_g_PrintData + 6)
      000C2F 36 09            [10] 3299 	ld	(hl), #0x09
                                   3300 ;./mandoroids.c:254: Print_DrawText("OU use o joystick");
      000C31 21r10r0D         [10] 3301 	ld	hl, #___str_3
      000C34 CDr00r00         [17] 3302 	call	_Print_DrawText
                                   3303 ;./mandoroids.c:257: Print_DrawTextAt(14,22,"2023");
                                   3304 ;C:/MSXgl-main/MSXgl-main/engine/src/print.h:203: g_PrintData.CursorX = x;
      000C37 21r05r00         [10] 3305 	ld	hl, #(_g_PrintData + 5)
      000C3A 36 0E            [10] 3306 	ld	(hl), #0x0e
                                   3307 ;C:/MSXgl-main/MSXgl-main/engine/src/print.h:204: g_PrintData.CursorY = y;
      000C3C 21r06r00         [10] 3308 	ld	hl, #(_g_PrintData + 6)
      000C3F 36 16            [10] 3309 	ld	(hl), #0x16
                                   3310 ;C:/MSXgl-main/MSXgl-main/engine/src/print.h:462: Print_DrawText(str);
      000C41 21r22r0D         [10] 3311 	ld	hl, #___str_4
      000C44 CDr00r00         [17] 3312 	call	_Print_DrawText
                                   3313 ;./mandoroids.c:258: Print_DrawTextAt(10,23,"IGOR MORENO");
                                   3314 ;C:/MSXgl-main/MSXgl-main/engine/src/print.h:203: g_PrintData.CursorX = x;
      000C47 21r05r00         [10] 3315 	ld	hl, #(_g_PrintData + 5)
      000C4A 36 0A            [10] 3316 	ld	(hl), #0x0a
                                   3317 ;C:/MSXgl-main/MSXgl-main/engine/src/print.h:204: g_PrintData.CursorY = y;
      000C4C 21r06r00         [10] 3318 	ld	hl, #(_g_PrintData + 6)
      000C4F 36 17            [10] 3319 	ld	(hl), #0x17
                                   3320 ;C:/MSXgl-main/MSXgl-main/engine/src/print.h:462: Print_DrawText(str);
      000C51 21r27r0D         [10] 3321 	ld	hl, #___str_5
      000C54 CDr00r00         [17] 3322 	call	_Print_DrawText
                                   3323 ;./mandoroids.c:262: SetPatternSM1(asteroid,2,1);
      000C57 2Ar00r00         [16] 3324 	ld	hl, (_g_ScreenPatternLow)
      000C5A 01 10 00         [10] 3325 	ld	bc, #0x0010
      000C5D 09               [11] 3326 	add	hl, bc
      000C5E 01r56r00         [10] 3327 	ld	bc, #_asteroid+0
      000C61 11 08 00         [10] 3328 	ld	de, #0x0008
      000C64 D5               [11] 3329 	push	de
      000C65 E5               [11] 3330 	push	hl
      000C66 C5               [11] 3331 	push	bc
      000C67 CDr00r00         [17] 3332 	call	_VDP_WriteVRAM_16K
      000C6A F1               [10] 3333 	pop	af
      000C6B F1               [10] 3334 	pop	af
      000C6C F1               [10] 3335 	pop	af
                                   3336 ;./mandoroids.c:263: Print_SetColor(0xF, 0x1);
      000C6D 2E 01            [ 7] 3337 	ld	l, #0x01
                                   3338 ;	spillPairReg hl
                                   3339 ;	spillPairReg hl
      000C6F 3E 0F            [ 7] 3340 	ld	a, #0x0f
      000C71 CDr00r00         [17] 3341 	call	_Print_SetColor
                                   3342 ;C:/MSXgl-main/MSXgl-main/engine/src/vdp.h:964: inline void VDP_SetSpriteFlag(u8 flag) { VDP_RegWriteBakMask(1, (u8)~(R01_ST|R01_MAG), flag); }
      000C74 3E 03            [ 7] 3343 	ld	a, #0x03
      000C76 F5               [11] 3344 	push	af
      000C77 33               [ 6] 3345 	inc	sp
      000C78 2E FC            [ 7] 3346 	ld	l, #0xfc
                                   3347 ;	spillPairReg hl
                                   3348 ;	spillPairReg hl
      000C7A 3E 01            [ 7] 3349 	ld	a, #0x01
      000C7C CDr00r00         [17] 3350 	call	_VDP_RegWriteBakMask
                                   3351 ;./mandoroids.c:269: px = 112;
      000C7F 21r00r00         [10] 3352 	ld	hl, #_px
      000C82 36 70            [10] 3353 	ld	(hl), #0x70
                                   3354 ;./mandoroids.c:270: py = 112;
      000C84 21r01r00         [10] 3355 	ld	hl, #_py
      000C87 36 70            [10] 3356 	ld	(hl), #0x70
                                   3357 ;./mandoroids.c:272: game_started = FALSE;
      000C89 21r0Fr00         [10] 3358 	ld	hl, #_game_started
      000C8C 36 00            [10] 3359 	ld	(hl), #0x00
                                   3360 ;./mandoroids.c:273: game_ended = FALSE;
      000C8E 21r10r00         [10] 3361 	ld	hl, #_game_ended
      000C91 36 00            [10] 3362 	ld	(hl), #0x00
                                   3363 ;./mandoroids.c:275: VDP_LoadSpritePattern(jetpack_f0,0,8);
      000C93 21 00 08         [10] 3364 	ld	hl, #0x800
      000C96 E5               [11] 3365 	push	hl
      000C97 21r16r00         [10] 3366 	ld	hl, #_jetpack_f0
      000C9A CDr00r00         [17] 3367 	call	_VDP_LoadSpritePattern
                                   3368 ;./mandoroids.c:276: VDP_SetSpriteSM1(0,px,py,0,15);
      000C9D 3E 0F            [ 7] 3369 	ld	a, #0x0f
      000C9F F5               [11] 3370 	push	af
      000CA0 33               [ 6] 3371 	inc	sp
      000CA1 AF               [ 4] 3372 	xor	a, a
      000CA2 F5               [11] 3373 	push	af
      000CA3 33               [ 6] 3374 	inc	sp
      000CA4 3Ar01r00         [13] 3375 	ld	a, (_py+0)
      000CA7 F5               [11] 3376 	push	af
      000CA8 33               [ 6] 3377 	inc	sp
      000CA9 3Ar00r00         [13] 3378 	ld	a, (_px+0)
      000CAC 6F               [ 4] 3379 	ld	l, a
                                   3380 ;	spillPairReg hl
                                   3381 ;	spillPairReg hl
      000CAD AF               [ 4] 3382 	xor	a, a
      000CAE CDr00r00         [17] 3383 	call	_VDP_SetSpriteSM1
                                   3384 ;./mandoroids.c:279: VDP_LoadSpritePattern(shot_pattern,12,4);
      000CB1 21 0C 04         [10] 3385 	ld	hl, #0x40c
      000CB4 E5               [11] 3386 	push	hl
      000CB5 21r5Er00         [10] 3387 	ld	hl, #_shot_pattern
      000CB8 CDr00r00         [17] 3388 	call	_VDP_LoadSpritePattern
                                   3389 ;./mandoroids.c:280: VDP_SetSpriteSM1(1,0,208,12,11);
      000CBB 21 0C 0B         [10] 3390 	ld	hl, #0xb0c
      000CBE E5               [11] 3391 	push	hl
      000CBF 3E D0            [ 7] 3392 	ld	a, #0xd0
      000CC1 F5               [11] 3393 	push	af
      000CC2 33               [ 6] 3394 	inc	sp
      000CC3 2E 00            [ 7] 3395 	ld	l, #0x00
                                   3396 ;	spillPairReg hl
                                   3397 ;	spillPairReg hl
      000CC5 3E 01            [ 7] 3398 	ld	a, #0x01
      000CC7 CDr00r00         [17] 3399 	call	_VDP_SetSpriteSM1
                                   3400 ;C:/MSXgl-main/MSXgl-main/engine/src/vdp.h:629: inline void VDP_EnableDisplay(bool enable) { VDP_RegWriteBakMask(1, (u8)~R01_BL, enable ? R01_BL : 0); }
      000CCA 3E 40            [ 7] 3401 	ld	a, #0x40
      000CCC F5               [11] 3402 	push	af
      000CCD 33               [ 6] 3403 	inc	sp
      000CCE 2E BF            [ 7] 3404 	ld	l, #0xbf
                                   3405 ;	spillPairReg hl
                                   3406 ;	spillPairReg hl
      000CD0 3E 01            [ 7] 3407 	ld	a, #0x01
      000CD2 CDr00r00         [17] 3408 	call	_VDP_RegWriteBakMask
                                   3409 ;./mandoroids.c:281: VDP_EnableDisplay(TRUE);
                                   3410 ;./mandoroids.c:282: }
      000CD5 C9               [10] 3411 	ret
      000CD6                       3412 ___str_0:
      000CD6 4D 41 4E 44 4F 52 4F  3413 	.ascii "MANDOROIDS"
             49 44 53
      000CE0 00                    3414 	.db 0x00
      000CE1                       3415 ___str_1:
      000CE1 41 74 69 72 65 20 6E  3416 	.ascii "Atire nos asteroides"
             6F 73 20 61 73 74 65
             72 6F 69 64 65 73
      000CF5 00                    3417 	.db 0x00
      000CF6                       3418 ___str_2:
      000CF6 53 45 54 41 53 20 6D  3419 	.ascii "SETAS movem, ESPACO atira"
             6F 76 65 6D 2C 20 45
             53 50 41 43 4F 20 61
             74 69 72 61
      000D0F 00                    3420 	.db 0x00
      000D10                       3421 ___str_3:
      000D10 4F 55 20 75 73 65 20  3422 	.ascii "OU use o joystick"
             6F 20 6A 6F 79 73 74
             69 63 6B
      000D21 00                    3423 	.db 0x00
      000D22                       3424 ___str_4:
      000D22 32 30 32 33           3425 	.ascii "2023"
      000D26 00                    3426 	.db 0x00
      000D27                       3427 ___str_5:
      000D27 49 47 4F 52 20 4D 4F  3428 	.ascii "IGOR MORENO"
             52 45 4E 4F
      000D32 00                    3429 	.db 0x00
                                   3430 ;./mandoroids.c:284: void FinalScreen() {
                                   3431 ;	---------------------------------
                                   3432 ; Function FinalScreen
                                   3433 ; ---------------------------------
      000D33                       3434 _FinalScreen::
                                   3435 ;./mandoroids.c:286: game_ended = TRUE;
      000D33 21r10r00         [10] 3436 	ld	hl, #_game_ended
      000D36 36 01            [10] 3437 	ld	(hl), #0x01
                                   3438 ;C:/MSXgl-main/MSXgl-main/engine/src/vdp.h:1121: inline void VDP_HideSprite(u8 index) { VDP_SetSpritePositionY(index, VDP_SPRITE_HIDE); }
      000D38 2E D5            [ 7] 3439 	ld	l, #0xd5
                                   3440 ;	spillPairReg hl
                                   3441 ;	spillPairReg hl
      000D3A AF               [ 4] 3442 	xor	a, a
      000D3B CDr00r00         [17] 3443 	call	_VDP_SetSpritePositionY
                                   3444 ;C:/MSXgl-main/MSXgl-main/engine/src/vdp.h:629: inline void VDP_EnableDisplay(bool enable) { VDP_RegWriteBakMask(1, (u8)~R01_BL, enable ? R01_BL : 0); }
      000D3E AF               [ 4] 3445 	xor	a, a
      000D3F F5               [11] 3446 	push	af
      000D40 33               [ 6] 3447 	inc	sp
      000D41 2E BF            [ 7] 3448 	ld	l, #0xbf
                                   3449 ;	spillPairReg hl
                                   3450 ;	spillPairReg hl
      000D43 3E 01            [ 7] 3451 	ld	a, #0x01
      000D45 CDr00r00         [17] 3452 	call	_VDP_RegWriteBakMask
                                   3453 ;./mandoroids.c:292: VDP_ClearVRAM();
      000D48 CDr00r00         [17] 3454 	call	_VDP_ClearVRAM
                                   3455 ;C:/MSXgl-main/MSXgl-main/engine/src/vdp.h:643: inline void VDP_SetColor(u8 color) { VDP_RegWrite(7, color); }
      000D4B 2E 01            [ 7] 3456 	ld	l, #0x01
                                   3457 ;	spillPairReg hl
                                   3458 ;	spillPairReg hl
      000D4D 3E 07            [ 7] 3459 	ld	a, #0x07
      000D4F CDr00r00         [17] 3460 	call	_VDP_RegWrite
                                   3461 ;./mandoroids.c:296: Print_SetColor(0xF, 0x1);
      000D52 2E 01            [ 7] 3462 	ld	l, #0x01
                                   3463 ;	spillPairReg hl
                                   3464 ;	spillPairReg hl
      000D54 3E 0F            [ 7] 3465 	ld	a, #0x0f
      000D56 CDr00r00         [17] 3466 	call	_Print_SetColor
                                   3467 ;./mandoroids.c:298: Print_SetTextFont(g_Font_MGL_Sample6, 1);
      000D59 3E 01            [ 7] 3468 	ld	a, #0x01
      000D5B F5               [11] 3469 	push	af
      000D5C 33               [ 6] 3470 	inc	sp
      000D5D 21rB2r00         [10] 3471 	ld	hl, #_g_Font_MGL_Sample6
      000D60 CDr00r00         [17] 3472 	call	_Print_SetTextFont
                                   3473 ;C:/MSXgl-main/MSXgl-main/engine/src/print.h:203: g_PrintData.CursorX = x;
      000D63 21r05r00         [10] 3474 	ld	hl, #(_g_PrintData + 5)
      000D66 36 02            [10] 3475 	ld	(hl), #0x02
                                   3476 ;C:/MSXgl-main/MSXgl-main/engine/src/print.h:204: g_PrintData.CursorY = y;
      000D68 21r06r00         [10] 3477 	ld	hl, #(_g_PrintData + 6)
      000D6B 36 09            [10] 3478 	ld	(hl), #0x09
                                   3479 ;./mandoroids.c:301: Print_DrawText("ASTEROIDES DESTRUIDOS:");
      000D6D 21rA4r0D         [10] 3480 	ld	hl, #___str_6
      000D70 CDr00r00         [17] 3481 	call	_Print_DrawText
                                   3482 ;./mandoroids.c:303: Print_DrawIntAt(25,9,asteroids_shot);
      000D73 ED 5Br18r00      [20] 3483 	ld	de, (_asteroids_shot)
                                   3484 ;C:/MSXgl-main/MSXgl-main/engine/src/print.h:203: g_PrintData.CursorX = x;
      000D77 21r05r00         [10] 3485 	ld	hl, #(_g_PrintData + 5)
      000D7A 36 19            [10] 3486 	ld	(hl), #0x19
                                   3487 ;C:/MSXgl-main/MSXgl-main/engine/src/print.h:204: g_PrintData.CursorY = y;
      000D7C 21r06r00         [10] 3488 	ld	hl, #(_g_PrintData + 6)
      000D7F 36 09            [10] 3489 	ld	(hl), #0x09
                                   3490 ;C:/MSXgl-main/MSXgl-main/engine/src/print.h:532: Print_DrawInt(val);
      000D81 7A               [ 4] 3491 	ld	a, d
      000D82 07               [ 4] 3492 	rlca
      000D83 ED 62            [15] 3493 	sbc	hl, hl
      000D85 CDr00r00         [17] 3494 	call	_Print_DrawInt
                                   3495 ;./mandoroids.c:305: Print_DrawTextAt(2,12,"ESPACO OU TIRO PARA JOGAR");
                                   3496 ;C:/MSXgl-main/MSXgl-main/engine/src/print.h:203: g_PrintData.CursorX = x;
      000D88 21r05r00         [10] 3497 	ld	hl, #(_g_PrintData + 5)
      000D8B 36 02            [10] 3498 	ld	(hl), #0x02
                                   3499 ;C:/MSXgl-main/MSXgl-main/engine/src/print.h:204: g_PrintData.CursorY = y;
      000D8D 21r06r00         [10] 3500 	ld	hl, #(_g_PrintData + 6)
      000D90 36 0C            [10] 3501 	ld	(hl), #0x0c
                                   3502 ;C:/MSXgl-main/MSXgl-main/engine/src/print.h:462: Print_DrawText(str);
      000D92 21rBBr0D         [10] 3503 	ld	hl, #___str_7
      000D95 CDr00r00         [17] 3504 	call	_Print_DrawText
                                   3505 ;C:/MSXgl-main/MSXgl-main/engine/src/vdp.h:629: inline void VDP_EnableDisplay(bool enable) { VDP_RegWriteBakMask(1, (u8)~R01_BL, enable ? R01_BL : 0); }
      000D98 3E 40            [ 7] 3506 	ld	a, #0x40
      000D9A F5               [11] 3507 	push	af
      000D9B 33               [ 6] 3508 	inc	sp
      000D9C 2E BF            [ 7] 3509 	ld	l, #0xbf
                                   3510 ;	spillPairReg hl
                                   3511 ;	spillPairReg hl
      000D9E 3E 01            [ 7] 3512 	ld	a, #0x01
      000DA0 CDr00r00         [17] 3513 	call	_VDP_RegWriteBakMask
                                   3514 ;./mandoroids.c:307: VDP_EnableDisplay(TRUE);
                                   3515 ;./mandoroids.c:308: }
      000DA3 C9               [10] 3516 	ret
      000DA4                       3517 ___str_6:
      000DA4 41 53 54 45 52 4F 49  3518 	.ascii "ASTEROIDES DESTRUIDOS:"
             44 45 53 20 44 45 53
             54 52 55 49 44 4F 53
             3A
      000DBA 00                    3519 	.db 0x00
      000DBB                       3520 ___str_7:
      000DBB 45 53 50 41 43 4F 20  3521 	.ascii "ESPACO OU TIRO PARA JOGAR"
             4F 55 20 54 49 52 4F
             20 50 41 52 41 20 4A
             4F 47 41 52
      000DD4 00                    3522 	.db 0x00
                                   3523 ;./mandoroids.c:310: void main()
                                   3524 ;	---------------------------------
                                   3525 ; Function main
                                   3526 ; ---------------------------------
      000DD5                       3527 _main::
      000DD5 DD E5            [15] 3528 	push	ix
      000DD7 DD 21 00 00      [14] 3529 	ld	ix,#0
      000DDB DD 39            [15] 3530 	add	ix,sp
      000DDD F5               [11] 3531 	push	af
      000DDE F5               [11] 3532 	push	af
                                   3533 ;./mandoroids.c:314: Math_SetRandomSeed8(0x20);
      000DDF 3E 20            [ 7] 3534 	ld	a, #0x20
      000DE1 CDr00r00         [17] 3535 	call	_Math_SetRandomSeed8
                                   3536 ;./mandoroids.c:316: VDP_SetMode(VDP_MODE_SCREEN1);
      000DE4 3E 02            [ 7] 3537 	ld	a, #0x02
      000DE6 CDr00r00         [17] 3538 	call	_VDP_SetMode
                                   3539 ;C:/MSXgl-main/MSXgl-main/engine/src/vdp.h:636: inline void VDP_EnableVBlank(bool enable) { VDP_RegWriteBakMask(1, (u8)~R01_IE0, enable ? R01_IE0 : 0); }
      000DE9 3E 20            [ 7] 3540 	ld	a, #0x20
      000DEB F5               [11] 3541 	push	af
      000DEC 33               [ 6] 3542 	inc	sp
      000DED 2E DF            [ 7] 3543 	ld	l, #0xdf
                                   3544 ;	spillPairReg hl
                                   3545 ;	spillPairReg hl
      000DEF 3E 01            [ 7] 3546 	ld	a, #0x01
      000DF1 CDr00r00         [17] 3547 	call	_VDP_RegWriteBakMask
                                   3548 ;./mandoroids.c:319: ResetGame();
      000DF4 CDrBEr0B         [17] 3549 	call	_ResetGame
                                   3550 ;./mandoroids.c:321: while(!Keyboard_IsKeyPressed(KEY_ESC))
      000DF7                       3551 00167$:
      000DF7 3E 27            [ 7] 3552 	ld	a, #0x27
      000DF9 CDr00r00         [17] 3553 	call	_Keyboard_IsKeyPressed
      000DFC B7               [ 4] 3554 	or	a, a
      000DFD C2r9Cr10         [10] 3555 	jp	NZ, 00169$
                                   3556 ;./mandoroids.c:324: Joystick_Update();
      000E00 CDr00r00         [17] 3557 	call	_Joystick_Update
                                   3558 ;./mandoroids.c:326: char dir = Joystick_GetDirection(JOY_PORT_1);
      000E03 3Ar00r00         [13] 3559 	ld	a, (#_g_JoyStats + 0)
      000E06 F5               [11] 3560 	push	af
      000E07 E6 0F            [ 7] 3561 	and	a, #0x0f
      000E09 4F               [ 4] 3562 	ld	c, a
      000E0A F1               [10] 3563 	pop	af
                                   3564 ;./mandoroids.c:327: char jb = Joystick_IsButtonPressed(JOY_PORT_1,JOY_INPUT_TRIGGER_A);
      000E0B E6 10            [ 7] 3565 	and	a, #0x10
      000E0D D6 01            [ 7] 3566 	sub	a,#0x01
      000E0F 3E 00            [ 7] 3567 	ld	a, #0x00
      000E11 17               [ 4] 3568 	rla
      000E12 EE 01            [ 7] 3569 	xor	a, #0x01
      000E14 DD 77 FC         [19] 3570 	ld	-4 (ix), a
                                   3571 ;./mandoroids.c:328: button_down = jb;
                                   3572 ;./mandoroids.c:330: if (button_down>0) {
      000E17 32r1Cr00         [13] 3573 	ld	(_button_down+0), a
      000E1A B7               [ 4] 3574 	or	a, a
      000E1B 28 05            [12] 3575 	jr	Z, 00102$
                                   3576 ;./mandoroids.c:331: joystick_used = TRUE;
      000E1D 21r1Ar00         [10] 3577 	ld	hl, #_joystick_used
      000E20 36 01            [10] 3578 	ld	(hl), #0x01
      000E22                       3579 00102$:
                                   3580 ;./mandoroids.c:334: char jl = dir & JOY_INPUT_DIR_LEFT;
      000E22 79               [ 4] 3581 	ld	a, c
      000E23 E6 04            [ 7] 3582 	and	a, #0x04
      000E25 DD 77 FD         [19] 3583 	ld	-3 (ix), a
                                   3584 ;./mandoroids.c:335: char jr = dir & JOY_INPUT_DIR_RIGHT;
      000E28 79               [ 4] 3585 	ld	a, c
      000E29 E6 08            [ 7] 3586 	and	a, #0x08
      000E2B DD 77 FE         [19] 3587 	ld	-2 (ix), a
                                   3588 ;./mandoroids.c:336: char ju = dir & JOY_INPUT_DIR_UP;
      000E2E 79               [ 4] 3589 	ld	a, c
      000E2F E6 01            [ 7] 3590 	and	a, #0x01
      000E31 DD 77 FF         [19] 3591 	ld	-1 (ix), a
                                   3592 ;./mandoroids.c:338: count++;
      000E34 21r00r00         [10] 3593 	ld	hl, #_count
      000E37 34               [11] 3594 	inc	(hl)
                                   3595 ;./mandoroids.c:339: can_shoot_timer++;
      000E38 2Ar12r00         [16] 3596 	ld	hl, (_can_shoot_timer)
      000E3B 23               [ 6] 3597 	inc	hl
      000E3C 22r12r00         [16] 3598 	ld	(_can_shoot_timer), hl
                                   3599 ;./mandoroids.c:340: difficulty_timer++;
      000E3F 2Ar14r00         [16] 3600 	ld	hl, (_difficulty_timer)
      000E42 23               [ 6] 3601 	inc	hl
      000E43 22r14r00         [16] 3602 	ld	(_difficulty_timer), hl
                                   3603 ;./mandoroids.c:341: speed_up_timer++;
      000E46 2Ar16r00         [16] 3604 	ld	hl, (_speed_up_timer)
      000E49 23               [ 6] 3605 	inc	hl
      000E4A 22r16r00         [16] 3606 	ld	(_speed_up_timer), hl
                                   3607 ;./mandoroids.c:343: hundred = count%100;
      000E4D 3Ar00r00         [13] 3608 	ld	a, (_count+0)
      000E50 6F               [ 4] 3609 	ld	l, a
                                   3610 ;	spillPairReg hl
                                   3611 ;	spillPairReg hl
      000E51 26 00            [ 7] 3612 	ld	h, #0x00
                                   3613 ;	spillPairReg hl
                                   3614 ;	spillPairReg hl
      000E53 E5               [11] 3615 	push	hl
      000E54 11 64 00         [10] 3616 	ld	de, #0x0064
      000E57 CDr00r00         [17] 3617 	call	__modsint
      000E5A E1               [10] 3618 	pop	hl
      000E5B 7B               [ 4] 3619 	ld	a, e
      000E5C 32r01r00         [13] 3620 	ld	(#_hundred), a
                                   3621 ;./mandoroids.c:345: if (count%2==0 && (vy<0 || !game_started)) {
      000E5F CB 45            [ 8] 3622 	bit	0, l
      000E61 20 15            [12] 3623 	jr	NZ, 00104$
      000E63 3Ar0Ar00         [13] 3624 	ld	a, (_vy+0)
      000E66 CB 7F            [ 8] 3625 	bit	7, a
      000E68 20 06            [12] 3626 	jr	NZ, 00103$
      000E6A 3Ar0Fr00         [13] 3627 	ld	a, (_game_started+0)
      000E6D B7               [ 4] 3628 	or	a, a
      000E6E 20 08            [12] 3629 	jr	NZ, 00104$
      000E70                       3630 00103$:
                                   3631 ;./mandoroids.c:346: VDP_SetSpritePattern(0,4);
      000E70 2E 04            [ 7] 3632 	ld	l, #0x04
                                   3633 ;	spillPairReg hl
                                   3634 ;	spillPairReg hl
      000E72 AF               [ 4] 3635 	xor	a, a
      000E73 CDr00r00         [17] 3636 	call	_VDP_SetSpritePattern
      000E76 18 05            [12] 3637 	jr	00105$
      000E78                       3638 00104$:
                                   3639 ;./mandoroids.c:348: VDP_SetSpritePattern(0,0);
                                   3640 ;	spillPairReg hl
                                   3641 ;	spillPairReg hl
      000E78 AF               [ 4] 3642 	xor	a, a
      000E79 6F               [ 4] 3643 	ld	l, a
      000E7A CDr00r00         [17] 3644 	call	_VDP_SetSpritePattern
      000E7D                       3645 00105$:
                                   3646 ;./mandoroids.c:351: if (game_started==FALSE) {
      000E7D 3Ar0Fr00         [13] 3647 	ld	a, (_game_started+0)
      000E80 B7               [ 4] 3648 	or	a, a
      000E81 20 3E            [12] 3649 	jr	NZ, 00113$
                                   3650 ;./mandoroids.c:352: if (Keyboard_IsKeyPressed(KEY_UP) || jb || ju) {
      000E83 3E 58            [ 7] 3651 	ld	a, #0x58
      000E85 CDr00r00         [17] 3652 	call	_Keyboard_IsKeyPressed
      000E88 B7               [ 4] 3653 	or	a, a
      000E89 20 0D            [12] 3654 	jr	NZ, 00108$
      000E8B DD 7E FC         [19] 3655 	ld	a, -4 (ix)
      000E8E B7               [ 4] 3656 	or	a, a
      000E8F 20 07            [12] 3657 	jr	NZ, 00108$
      000E91 DD 7E FF         [19] 3658 	ld	a, -1 (ix)
      000E94 B7               [ 4] 3659 	or	a, a
      000E95 CAr8Cr10         [10] 3660 	jp	Z, 00166$
      000E98                       3661 00108$:
                                   3662 ;./mandoroids.c:353: game_started = TRUE;
      000E98 21r0Fr00         [10] 3663 	ld	hl, #_game_started
      000E9B 36 01            [10] 3664 	ld	(hl), #0x01
                                   3665 ;C:/MSXgl-main/MSXgl-main/engine/src/vdp.h:629: inline void VDP_EnableDisplay(bool enable) { VDP_RegWriteBakMask(1, (u8)~R01_BL, enable ? R01_BL : 0); }
      000E9D AF               [ 4] 3666 	xor	a, a
      000E9E F5               [11] 3667 	push	af
      000E9F 33               [ 6] 3668 	inc	sp
      000EA0 2E BF            [ 7] 3669 	ld	l, #0xbf
                                   3670 ;	spillPairReg hl
                                   3671 ;	spillPairReg hl
      000EA2 3E 01            [ 7] 3672 	ld	a, #0x01
      000EA4 CDr00r00         [17] 3673 	call	_VDP_RegWriteBakMask
                                   3674 ;./mandoroids.c:355: VDP_FillVRAM_16K(0,g_ScreenLayoutLow,768);
      000EA7 21 00 03         [10] 3675 	ld	hl, #0x0300
      000EAA E5               [11] 3676 	push	hl
      000EAB ED 5Br00r00      [20] 3677 	ld	de, (_g_ScreenLayoutLow)
      000EAF AF               [ 4] 3678 	xor	a, a
      000EB0 CDr00r00         [17] 3679 	call	_VDP_FillVRAM_16K
                                   3680 ;C:/MSXgl-main/MSXgl-main/engine/src/vdp.h:629: inline void VDP_EnableDisplay(bool enable) { VDP_RegWriteBakMask(1, (u8)~R01_BL, enable ? R01_BL : 0); }
      000EB3 3E 40            [ 7] 3681 	ld	a, #0x40
      000EB5 F5               [11] 3682 	push	af
      000EB6 33               [ 6] 3683 	inc	sp
      000EB7 2E BF            [ 7] 3684 	ld	l, #0xbf
                                   3685 ;	spillPairReg hl
                                   3686 ;	spillPairReg hl
      000EB9 3E 01            [ 7] 3687 	ld	a, #0x01
      000EBB CDr00r00         [17] 3688 	call	_VDP_RegWriteBakMask
                                   3689 ;./mandoroids.c:358: goto FRAME_END;
      000EBE C3r8Cr10         [10] 3690 	jp	00166$
      000EC1                       3691 00113$:
                                   3692 ;./mandoroids.c:361: if (game_ended==TRUE) {
      000EC1 3Ar10r00         [13] 3693 	ld	a, (_game_ended+0)
      000EC4 3D               [ 4] 3694 	dec	a
      000EC5 20 2F            [12] 3695 	jr	NZ, 00122$
                                   3696 ;./mandoroids.c:362: if (!button_down || !Keyboard_IsKeyPressed(KEY_SPACE)) {
      000EC7 3Ar1Cr00         [13] 3697 	ld	a, (_button_down+0)
      000ECA B7               [ 4] 3698 	or	a, a
      000ECB 28 08            [12] 3699 	jr	Z, 00114$
      000ECD 3E 08            [ 7] 3700 	ld	a, #0x08
      000ECF CDr00r00         [17] 3701 	call	_Keyboard_IsKeyPressed
      000ED2 B7               [ 4] 3702 	or	a, a
      000ED3 20 05            [12] 3703 	jr	NZ, 00115$
      000ED5                       3704 00114$:
                                   3705 ;./mandoroids.c:363: can_reset = TRUE;
      000ED5 21r1Dr00         [10] 3706 	ld	hl, #_can_reset
      000ED8 36 01            [10] 3707 	ld	(hl), #0x01
      000EDA                       3708 00115$:
                                   3709 ;./mandoroids.c:365: if ((Keyboard_IsKeyPressed(KEY_SPACE) || jb) && can_reset) {
      000EDA 3E 08            [ 7] 3710 	ld	a, #0x08
      000EDC CDr00r00         [17] 3711 	call	_Keyboard_IsKeyPressed
      000EDF B7               [ 4] 3712 	or	a, a
      000EE0 20 07            [12] 3713 	jr	NZ, 00120$
      000EE2 DD 7E FC         [19] 3714 	ld	a, -4 (ix)
      000EE5 B7               [ 4] 3715 	or	a, a
      000EE6 CAr8Cr10         [10] 3716 	jp	Z, 00166$
      000EE9                       3717 00120$:
      000EE9 3Ar1Dr00         [13] 3718 	ld	a, (_can_reset+0)
      000EEC B7               [ 4] 3719 	or	a, a
      000EED CAr8Cr10         [10] 3720 	jp	Z, 00166$
                                   3721 ;./mandoroids.c:366: ResetGame();
      000EF0 CDrBEr0B         [17] 3722 	call	_ResetGame
                                   3723 ;./mandoroids.c:368: goto FRAME_END;
      000EF3 C3r8Cr10         [10] 3724 	jp	00166$
      000EF6                       3725 00122$:
                                   3726 ;./mandoroids.c:372: if (count%input_rate==0){
      000EF6 3Ar0Br00         [13] 3727 	ld	a, (_input_rate+0)
      000EF9 6F               [ 4] 3728 	ld	l, a
                                   3729 ;	spillPairReg hl
                                   3730 ;	spillPairReg hl
      000EFA 3Ar00r00         [13] 3731 	ld	a, (_count+0)
      000EFD CDr00r00         [17] 3732 	call	__moduchar
      000F00 7B               [ 4] 3733 	ld	a, e
      000F01 B7               [ 4] 3734 	or	a, a
      000F02 20 60            [12] 3735 	jr	NZ, 00135$
                                   3736 ;./mandoroids.c:374: if ((Keyboard_IsKeyPressed(KEY_LEFT) || jl) && px > 8) {
      000F04 3E 48            [ 7] 3737 	ld	a, #0x48
      000F06 CDr00r00         [17] 3738 	call	_Keyboard_IsKeyPressed
      000F09 B7               [ 4] 3739 	or	a, a
      000F0A 20 06            [12] 3740 	jr	NZ, 00126$
      000F0C DD 7E FD         [19] 3741 	ld	a, -3 (ix)
      000F0F B7               [ 4] 3742 	or	a, a
      000F10 28 0E            [12] 3743 	jr	Z, 00124$
      000F12                       3744 00126$:
      000F12 3E 08            [ 7] 3745 	ld	a, #0x08
      000F14 FD 21r00r00      [14] 3746 	ld	iy, #_px
      000F18 FD 96 00         [19] 3747 	sub	a, 0 (iy)
      000F1B 30 03            [12] 3748 	jr	NC, 00124$
                                   3749 ;./mandoroids.c:375: px--;
      000F1D FD 35 00         [23] 3750 	dec	0 (iy)
      000F20                       3751 00124$:
                                   3752 ;./mandoroids.c:377: if ((Keyboard_IsKeyPressed(KEY_RIGHT) || jr) && px < 200) {
      000F20 3E 78            [ 7] 3753 	ld	a, #0x78
      000F22 CDr00r00         [17] 3754 	call	_Keyboard_IsKeyPressed
      000F25 B7               [ 4] 3755 	or	a, a
      000F26 20 06            [12] 3756 	jr	NZ, 00130$
      000F28 DD 7E FE         [19] 3757 	ld	a, -2 (ix)
      000F2B B7               [ 4] 3758 	or	a, a
      000F2C 28 0B            [12] 3759 	jr	Z, 00128$
      000F2E                       3760 00130$:
      000F2E 3Ar00r00         [13] 3761 	ld	a, (_px+0)
      000F31 D6 C8            [ 7] 3762 	sub	a, #0xc8
      000F33 30 04            [12] 3763 	jr	NC, 00128$
                                   3764 ;./mandoroids.c:378: px++;
      000F35 21r00r00         [10] 3765 	ld	hl, #_px
      000F38 34               [11] 3766 	inc	(hl)
      000F39                       3767 00128$:
                                   3768 ;./mandoroids.c:380: if ((Keyboard_IsKeyPressed(KEY_UP) || ju)) {
      000F39 3E 58            [ 7] 3769 	ld	a, #0x58
      000F3B CDr00r00         [17] 3770 	call	_Keyboard_IsKeyPressed
      000F3E B7               [ 4] 3771 	or	a, a
      000F3F 20 06            [12] 3772 	jr	NZ, 00131$
      000F41 DD 7E FF         [19] 3773 	ld	a, -1 (ix)
      000F44 B7               [ 4] 3774 	or	a, a
      000F45 28 1D            [12] 3775 	jr	Z, 00135$
      000F47                       3776 00131$:
                                   3777 ;./mandoroids.c:381: vy = vy-- > -3 ? vy : -3;
      000F47 3Ar0Ar00         [13] 3778 	ld	a, (_vy+0)
      000F4A 4F               [ 4] 3779 	ld	c, a
      000F4B 21r0Ar00         [10] 3780 	ld	hl, #_vy
      000F4E 35               [11] 3781 	dec	(hl)
      000F4F 3E FD            [ 7] 3782 	ld	a, #0xfd
      000F51 91               [ 4] 3783 	sub	a, c
      000F52 E2r57r0F         [10] 3784 	jp	PO, 00369$
      000F55 EE 80            [ 7] 3785 	xor	a, #0x80
      000F57                       3786 00369$:
      000F57 F2r5Fr0F         [10] 3787 	jp	P, 00183$
      000F5A 3Ar0Ar00         [13] 3788 	ld	a, (_vy+0)
      000F5D 18 02            [12] 3789 	jr	00184$
      000F5F                       3790 00183$:
      000F5F 3E FD            [ 7] 3791 	ld	a, #0xfd
      000F61                       3792 00184$:
      000F61 32r0Ar00         [13] 3793 	ld	(_vy+0), a
      000F64                       3794 00135$:
                                   3795 ;./mandoroids.c:385: if (can_shoot==TRUE && (Keyboard_IsKeyPressed(KEY_SPACE) || jb)) {
      000F64 3Ar11r00         [13] 3796 	ld	a, (_can_shoot+0)
      000F67 3D               [ 4] 3797 	dec	a
      000F68 20 11            [12] 3798 	jr	NZ, 00137$
      000F6A 3E 08            [ 7] 3799 	ld	a, #0x08
      000F6C CDr00r00         [17] 3800 	call	_Keyboard_IsKeyPressed
      000F6F B7               [ 4] 3801 	or	a, a
      000F70 20 06            [12] 3802 	jr	NZ, 00136$
      000F72 DD 7E FC         [19] 3803 	ld	a, -4 (ix)
      000F75 B7               [ 4] 3804 	or	a, a
      000F76 28 03            [12] 3805 	jr	Z, 00137$
      000F78                       3806 00136$:
                                   3807 ;./mandoroids.c:386: Shoot();
      000F78 CDrB3r09         [17] 3808 	call	_Shoot
      000F7B                       3809 00137$:
                                   3810 ;./mandoroids.c:389: if (count%update_rate==0) {
      000F7B 3Ar0Cr00         [13] 3811 	ld	a, (_update_rate+0)
      000F7E 6F               [ 4] 3812 	ld	l, a
                                   3813 ;	spillPairReg hl
                                   3814 ;	spillPairReg hl
      000F7F 3Ar00r00         [13] 3815 	ld	a, (_count+0)
      000F82 CDr00r00         [17] 3816 	call	__moduchar
      000F85 7B               [ 4] 3817 	ld	a, e
      000F86 B7               [ 4] 3818 	or	a, a
      000F87 20 40            [12] 3819 	jr	NZ, 00144$
                                   3820 ;./mandoroids.c:391: vy = vy++ > 2 ? 2 : vy;
      000F89 3Ar0Ar00         [13] 3821 	ld	a, (_vy+0)
      000F8C 4F               [ 4] 3822 	ld	c, a
      000F8D 21r0Ar00         [10] 3823 	ld	hl, #_vy
      000F90 34               [11] 3824 	inc	(hl)
      000F91 3E 02            [ 7] 3825 	ld	a, #0x02
      000F93 91               [ 4] 3826 	sub	a, c
      000F94 E2r99r0F         [10] 3827 	jp	PO, 00372$
      000F97 EE 80            [ 7] 3828 	xor	a, #0x80
      000F99                       3829 00372$:
      000F99 F2rA0r0F         [10] 3830 	jp	P, 00185$
      000F9C 3E 02            [ 7] 3831 	ld	a, #0x02
      000F9E 18 06            [12] 3832 	jr	00186$
      000FA0                       3833 00185$:
      000FA0 3Ar0Ar00         [13] 3834 	ld	a, (_vy+0)
      000FA3 F5               [11] 3835 	push	af
      000FA4 07               [ 4] 3836 	rlca
      000FA5 F1               [10] 3837 	pop	af
      000FA6                       3838 00186$:
      000FA6 32r0Ar00         [13] 3839 	ld	(_vy+0), a
                                   3840 ;./mandoroids.c:392: py += vy;
      000FA9 3Ar01r00         [13] 3841 	ld	a, (_py+0)
      000FAC 21r0Ar00         [10] 3842 	ld	hl, #_vy
      000FAF 86               [ 7] 3843 	add	a, (hl)
      000FB0 32r01r00         [13] 3844 	ld	(_py+0), a
                                   3845 ;./mandoroids.c:393: if (vy<0 && py>230) {
      000FB3 3Ar0Ar00         [13] 3846 	ld	a, (_vy+0)
      000FB6 CB 7F            [ 8] 3847 	bit	7, a
      000FB8 28 0F            [12] 3848 	jr	Z, 00144$
      000FBA 3E E6            [ 7] 3849 	ld	a, #0xe6
      000FBC FD 21r01r00      [14] 3850 	ld	iy, #_py
      000FC0 FD 96 00         [19] 3851 	sub	a, 0 (iy)
      000FC3 30 04            [12] 3852 	jr	NC, 00144$
                                   3853 ;./mandoroids.c:394: py = 0;
      000FC5 FD 36 00 00      [19] 3854 	ld	0 (iy), #0x00
      000FC9                       3855 00144$:
                                   3856 ;./mandoroids.c:398: if (count%scroll_rate==0) {
      000FC9 3Ar0Dr00         [13] 3857 	ld	a, (_scroll_rate+0)
      000FCC 6F               [ 4] 3858 	ld	l, a
                                   3859 ;	spillPairReg hl
                                   3860 ;	spillPairReg hl
      000FCD 3Ar00r00         [13] 3861 	ld	a, (_count+0)
      000FD0 CDr00r00         [17] 3862 	call	__moduchar
      000FD3 7B               [ 4] 3863 	ld	a, e
      000FD4 B7               [ 4] 3864 	or	a, a
      000FD5 20 0F            [12] 3865 	jr	NZ, 00148$
                                   3866 ;./mandoroids.c:399: UpdateCollision();
      000FD7 CDr0Ar0B         [17] 3867 	call	_UpdateCollision
                                   3868 ;./mandoroids.c:400: if (!game_ended) {
      000FDA 3Ar10r00         [13] 3869 	ld	a, (_game_ended+0)
      000FDD B7               [ 4] 3870 	or	a, a
      000FDE 20 03            [12] 3871 	jr	NZ, 00146$
                                   3872 ;./mandoroids.c:401: ScrollBackgroundToTheLeft();
      000FE0 CDr86r00         [17] 3873 	call	_ScrollBackgroundToTheLeft
      000FE3                       3874 00146$:
                                   3875 ;./mandoroids.c:403: UpdateCollision();
      000FE3 CDr0Ar0B         [17] 3876 	call	_UpdateCollision
      000FE6                       3877 00148$:
                                   3878 ;./mandoroids.c:406: if (can_shoot_timer>=350 || asteroid_destroyed) {
      000FE6 3Ar12r00         [13] 3879 	ld	a, (_can_shoot_timer+0)
      000FE9 D6 5E            [ 7] 3880 	sub	a, #0x5e
      000FEB 3Ar13r00         [13] 3881 	ld	a, (_can_shoot_timer+1)
      000FEE 17               [ 4] 3882 	rla
      000FEF 3F               [ 4] 3883 	ccf
      000FF0 1F               [ 4] 3884 	rra
      000FF1 DE 81            [ 7] 3885 	sbc	a, #0x81
      000FF3 30 06            [12] 3886 	jr	NC, 00157$
      000FF5 3Ar1Br00         [13] 3887 	ld	a, (_asteroid_destroyed+0)
      000FF8 B7               [ 4] 3888 	or	a, a
      000FF9 28 49            [12] 3889 	jr	Z, 00158$
      000FFB                       3890 00157$:
                                   3891 ;./mandoroids.c:407: if (!button_down && joystick_used) {
      000FFB 3Ar1Cr00         [13] 3892 	ld	a, (_button_down+0)
      000FFE B7               [ 4] 3893 	or	a, a
      000FFF 20 1D            [12] 3894 	jr	NZ, 00154$
      001001 3Ar1Ar00         [13] 3895 	ld	a, (_joystick_used+0)
      001004 B7               [ 4] 3896 	or	a, a
      001005 28 17            [12] 3897 	jr	Z, 00154$
                                   3898 ;./mandoroids.c:408: can_shoot = TRUE;
      001007 21r11r00         [10] 3899 	ld	hl, #_can_shoot
      00100A 36 01            [10] 3900 	ld	(hl), #0x01
                                   3901 ;./mandoroids.c:409: can_shoot_timer = 0;
      00100C 21 00 00         [10] 3902 	ld	hl, #0x0000
      00100F 22r12r00         [16] 3903 	ld	(_can_shoot_timer), hl
                                   3904 ;./mandoroids.c:410: asteroid_destroyed = FALSE;
      001012 21r1Br00         [10] 3905 	ld	hl, #_asteroid_destroyed
      001015 36 00            [10] 3906 	ld	(hl), #0x00
                                   3907 ;./mandoroids.c:411: joystick_used = FALSE;
      001017 21r1Ar00         [10] 3908 	ld	hl, #_joystick_used
      00101A 36 00            [10] 3909 	ld	(hl), #0x00
      00101C 18 26            [12] 3910 	jr	00158$
      00101E                       3911 00154$:
                                   3912 ;./mandoroids.c:412: } else if (!Keyboard_IsKeyPressed(KEY_SPACE) && !joystick_used) {
      00101E 3E 08            [ 7] 3913 	ld	a, #0x08
      001020 CDr00r00         [17] 3914 	call	_Keyboard_IsKeyPressed
      001023 B7               [ 4] 3915 	or	a, a
      001024 20 18            [12] 3916 	jr	NZ, 00150$
      001026 3Ar1Ar00         [13] 3917 	ld	a, (_joystick_used+0)
      001029 B7               [ 4] 3918 	or	a, a
      00102A 20 12            [12] 3919 	jr	NZ, 00150$
                                   3920 ;./mandoroids.c:413: can_shoot = TRUE;
      00102C 21r11r00         [10] 3921 	ld	hl, #_can_shoot
      00102F 36 01            [10] 3922 	ld	(hl), #0x01
                                   3923 ;./mandoroids.c:414: can_shoot_timer = 0;
      001031 21 00 00         [10] 3924 	ld	hl, #0x0000
      001034 22r12r00         [16] 3925 	ld	(_can_shoot_timer), hl
                                   3926 ;./mandoroids.c:415: asteroid_destroyed = FALSE;
      001037 21r1Br00         [10] 3927 	ld	hl, #_asteroid_destroyed
      00103A 36 00            [10] 3928 	ld	(hl), #0x00
      00103C 18 06            [12] 3929 	jr	00158$
      00103E                       3930 00150$:
                                   3931 ;./mandoroids.c:417: can_shoot_timer = 349;
      00103E 21 5D 01         [10] 3932 	ld	hl, #0x015d
      001041 22r12r00         [16] 3933 	ld	(_can_shoot_timer), hl
      001044                       3934 00158$:
                                   3935 ;./mandoroids.c:421: if (difficulty_timer>=1400) {
      001044 3Ar14r00         [13] 3936 	ld	a, (_difficulty_timer+0)
      001047 D6 78            [ 7] 3937 	sub	a, #0x78
      001049 3Ar15r00         [13] 3938 	ld	a, (_difficulty_timer+1)
      00104C 17               [ 4] 3939 	rla
      00104D 3F               [ 4] 3940 	ccf
      00104E 1F               [ 4] 3941 	rra
      00104F DE 85            [ 7] 3942 	sbc	a, #0x85
      001051 38 0D            [12] 3943 	jr	C, 00161$
                                   3944 ;./mandoroids.c:422: difficulty_timer = 0;
      001053 21 00 00         [10] 3945 	ld	hl, #0x0000
      001056 22r14r00         [16] 3946 	ld	(_difficulty_timer), hl
                                   3947 ;./mandoroids.c:423: asteroid_chance += 1;
      001059 3Ar0Er00         [13] 3948 	ld	a, (_asteroid_chance+0)
      00105C 3C               [ 4] 3949 	inc	a
      00105D 32r0Er00         [13] 3950 	ld	(_asteroid_chance+0), a
      001060                       3951 00161$:
                                   3952 ;./mandoroids.c:426: if (speed_up_timer>=2044) {
      001060 3Ar16r00         [13] 3953 	ld	a, (_speed_up_timer+0)
      001063 D6 FC            [ 7] 3954 	sub	a, #0xfc
      001065 3Ar17r00         [13] 3955 	ld	a, (_speed_up_timer+1)
      001068 17               [ 4] 3956 	rla
      001069 3F               [ 4] 3957 	ccf
      00106A 1F               [ 4] 3958 	rra
      00106B DE 87            [ 7] 3959 	sbc	a, #0x87
      00106D 38 0F            [12] 3960 	jr	C, 00163$
                                   3961 ;./mandoroids.c:427: speed_up_timer = 0;
      00106F 21 00 00         [10] 3962 	ld	hl, #0x0000
      001072 22r16r00         [16] 3963 	ld	(_speed_up_timer), hl
                                   3964 ;./mandoroids.c:428: scroll_rate -= 4;
      001075 3Ar0Dr00         [13] 3965 	ld	a, (_scroll_rate+0)
      001078 21r0Dr00         [10] 3966 	ld	hl, #_scroll_rate
      00107B C6 FC            [ 7] 3967 	add	a, #0xfc
      00107D 77               [ 7] 3968 	ld	(hl), a
      00107E                       3969 00163$:
                                   3970 ;./mandoroids.c:431: if (py>192) {
      00107E 3E C0            [ 7] 3971 	ld	a, #0xc0
      001080 21r01r00         [10] 3972 	ld	hl, #_py
      001083 96               [ 7] 3973 	sub	a, (hl)
      001084 30 03            [12] 3974 	jr	NC, 00165$
                                   3975 ;./mandoroids.c:432: FinalScreen();
      001086 CDr33r0D         [17] 3976 	call	_FinalScreen
      001089                       3977 00165$:
                                   3978 ;./mandoroids.c:435: UpdateShots();
      001089 CDr47r0A         [17] 3979 	call	_UpdateShots
                                   3980 ;./mandoroids.c:437: FRAME_END:
      00108C                       3981 00166$:
                                   3982 ;./mandoroids.c:438: VDP_SetSpritePosition(0,px,py);
      00108C 3Ar01r00         [13] 3983 	ld	a, (_py+0)
      00108F F5               [11] 3984 	push	af
      001090 33               [ 6] 3985 	inc	sp
      001091 3Ar00r00         [13] 3986 	ld	a, (_px+0)
      001094 6F               [ 4] 3987 	ld	l, a
                                   3988 ;	spillPairReg hl
                                   3989 ;	spillPairReg hl
      001095 AF               [ 4] 3990 	xor	a, a
      001096 CDr00r00         [17] 3991 	call	_VDP_SetSpritePosition
      001099 C3rF7r0D         [10] 3992 	jp	00167$
      00109C                       3993 00169$:
                                   3994 ;./mandoroids.c:442: Bios_Exit(0);
      00109C AF               [ 4] 3995 	xor	a, a
      00109D CDr00r00         [17] 3996 	call	_Bios_Exit
                                   3997 ;./mandoroids.c:443: }
      0010A0 DD F9            [10] 3998 	ld	sp, ix
      0010A2 DD E1            [14] 3999 	pop	ix
      0010A4 C9               [10] 4000 	ret
                                   4001 	.area _CODE
                                   4002 	.area _INITIALIZER
      000000                       4003 __xinit__count:
      000000 00                    4004 	.db #0x00	; 0
      000001                       4005 __xinit__hundred:
      000001 00                    4006 	.db #0x00	; 0
      000002                       4007 __xinit__asteroid_arrangements:
      000002 80                    4008 	.db #0x80	; 128
      000003 01                    4009 	.db #0x01	; 1
      000004 40                    4010 	.db #0x40	; 64
      000005 10                    4011 	.db #0x10	; 16
      000006 20                    4012 	.db #0x20	; 32
      000007 02                    4013 	.db #0x02	; 2
      000008 04                    4014 	.db #0x04	; 4
      000009 08                    4015 	.db #0x08	; 8
      00000A                       4016 __xinit__vy:
      00000A 00                    4017 	.db #0x00	;  0
      00000B                       4018 __xinit__input_rate:
      00000B 08                    4019 	.db #0x08	; 8
      00000C                       4020 __xinit__update_rate:
      00000C 0C                    4021 	.db #0x0c	; 12
      00000D                       4022 __xinit__scroll_rate:
      00000D 80                    4023 	.db #0x80	; 128
      00000E                       4024 __xinit__asteroid_chance:
      00000E 0A                    4025 	.db #0x0a	; 10
      00000F                       4026 __xinit__game_started:
      00000F 00                    4027 	.db #0x00	; 0
      000010                       4028 __xinit__game_ended:
      000010 00                    4029 	.db #0x00	; 0
      000011                       4030 __xinit__can_shoot:
      000011 01                    4031 	.db #0x01	; 1
      000012                       4032 __xinit__can_shoot_timer:
      000012 00 00                 4033 	.dw #0x0000
      000014                       4034 __xinit__difficulty_timer:
      000014 00 00                 4035 	.dw #0x0000
      000016                       4036 __xinit__speed_up_timer:
      000016 00 00                 4037 	.dw #0x0000
      000018                       4038 __xinit__asteroids_shot:
      000018 00 00                 4039 	.dw #0x0000
      00001A                       4040 __xinit__joystick_used:
      00001A 00                    4041 	.db #0x00	; 0
      00001B                       4042 __xinit__asteroid_destroyed:
      00001B 00                    4043 	.db #0x00	; 0
      00001C                       4044 __xinit__button_down:
      00001C 00                    4045 	.db #0x00	; 0
      00001D                       4046 __xinit__can_reset:
      00001D 00                    4047 	.db #0x00	; 0
      00001E                       4048 __xinit__shot_pos:
      00001E 00                    4049 	.db #0x00	; 0
      00001F 00                    4050 	.db #0x00	; 0
      000020                       4051 __xinit__shot_pos_tile:
      000020 00                    4052 	.db #0x00	; 0
      000021 00                    4053 	.db #0x00	; 0
      000022                       4054 __xinit__shot_active:
      000022 00                    4055 	.db #0x00	; 0
                                   4056 	.area _CABS (ABS)
